(dp1
I0
(dp2
S'source'
p3
Vhttp://120.52.73.63/data1.cache.directory/media/videos/iphone/1.mp4
p4
sS'link'
p5
S'http://www.websc.cc/c/1.php'
p6
ssI1
(dp7
g3
Vhttp://120.52.73.63/data1.cache.directory/media/videos/iphone/4200.mp4
p8
sg5
S'http://www.websc.cc/c/2.php'
p9
ssI2
(dp10
g3
Vhttp://120.52.73.63/data1.cache.directory/media/videos/iphone/120.mp4
p11
sg5
S'http://www.websc.cc/c/3.php'
p12
ssI3
(dp13
g3
Vhttp://120.52.73.63/data1.cache.directory/media/videos/iphone/121.mp4
p14
sg5
S'http://www.websc.cc/c/4.php'
p15
ssI4
(dp16
g3
Vhttp://120.52.73.63/data1.cache.directory/media/videos/iphone/122.mp4
p17
sg5
S'http://www.websc.cc/c/5.php'
p18
ssI5
(dp19
g3
Vhttp://120.52.73.63/data1.cache.directory/media/videos/iphone/123.mp4
p20
sg5
S'http://www.websc.cc/c/6.php'
p21
ssI6
(dp22
g3
Vhttp://120.52.73.63/data1.cache.directory/media/videos/iphone/124.mp4
p23
sg5
S'http://www.websc.cc/c/7.php'
p24
ssI7
(dp25
g3
Vhttp://120.52.73.63/data1.cache.directory/media/videos/iphone/125.mp4
p26
sg5
S'http://www.websc.cc/c/8.php'
p27
ssI8
(dp28
g3
Vhttp://120.52.73.63/data1.cache.directory/media/videos/iphone/126.mp4
p29
sg5
S'http://www.websc.cc/c/9.php'
p30
ssI9
(dp31
g3
Vhttp://120.52.73.63/data1.cache.directory/media/videos/iphone/128.mp4
p32
sg5
S'http://www.websc.cc/c/10.php'
p33
ssI10
(dp34
g3
Vhttp://120.52.73.63/data1.cache.directory/media/videos/iphone/127.mp4
p35
sg5
S'http://www.websc.cc/c/11.php'
p36
ssI11
(dp37
g3
Vhttp://120.52.73.63/data1.cache.directory/media/videos/iphone/129.mp4
p38
sg5
S'http://www.websc.cc/c/12.php'
p39
ssI12
(dp40
g3
Vhttp://120.52.73.63/data1.cache.directory/media/videos/iphone/130.mp4
p41
sg5
S'http://www.websc.cc/c/13.php'
p42
ssI13
(dp43
g3
Vhttp://120.52.73.63/data1.cache.directory/media/videos/iphone/133.mp4
p44
sg5
S'http://www.websc.cc/c/14.php'
p45
ssI14
(dp46
g3
Vhttp://120.52.73.63/data1.cache.directory/media/videos/iphone/134.mp4
p47
sg5
S'http://www.websc.cc/c/15.php'
p48
ssI15
(dp49
g3
Vhttp://120.52.73.63/data1.cache.directory/media/videos/iphone/135.mp4
p50
sg5
S'http://www.websc.cc/c/16.php'
p51
ssI16
(dp52
g3
Vhttp://120.52.73.63/data1.cache.directory/media/videos/iphone/136.mp4
p53
sg5
S'http://www.websc.cc/c/17.php'
p54
ssI17
(dp55
g3
Vhttp://120.52.73.63/data1.cache.directory/media/videos/iphone/137.mp4
p56
sg5
S'http://www.websc.cc/c/18.php'
p57
ssI18
(dp58
g3
Vhttp://120.52.73.63/data1.cache.directory/media/videos/iphone/138.mp4
p59
sg5
S'http://www.websc.cc/c/19.php'
p60
ssI19
(dp61
g3
Vhttp://120.52.73.63/data1.cache.directory/media/videos/iphone/139.mp4
p62
sg5
S'http://www.websc.cc/c/20.php'
p63
ssI20
(dp64
g3
Vhttp://120.52.73.63/data1.cache.directory/media/videos/iphone/140.mp4
p65
sg5
S'http://www.websc.cc/c/21.php'
p66
ssI21
(dp67
g3
Vhttp://120.52.73.63/data1.cache.directory/media/videos/iphone/141.mp4
p68
sg5
S'http://www.websc.cc/c/22.php'
p69
ssI22
(dp70
g3
Vhttp://120.52.73.63/data1.cache.directory/media/videos/iphone/142.mp4
p71
sg5
S'http://www.websc.cc/c/23.php'
p72
ssI23
(dp73
g3
Vhttp://120.52.73.63/data1.cache.directory/media/videos/iphone/143.mp4
p74
sg5
S'http://www.websc.cc/c/24.php'
p75
ssI24
(dp76
g3
Vhttp://120.52.73.63/data1.cache.directory/media/videos/iphone/144.mp4
p77
sg5
S'http://www.websc.cc/c/25.php'
p78
ssI25
(dp79
g3
Vhttp://120.52.73.63/data1.cache.directory/media/videos/iphone/200.mp4
p80
sg5
S'http://www.websc.cc/c/26.php'
p81
ssI26
(dp82
g3
Vhttp://120.52.73.63/data1.cache.directory/media/videos/iphone/400.mp4
p83
sg5
S'http://www.websc.cc/c/27.php'
p84
ssI27
(dp85
g3
Vhttp://120.52.73.63/data1.cache.directory/media/videos/iphone/401.mp4
p86
sg5
S'http://www.websc.cc/c/28.php'
p87
ssI28
(dp88
g3
Vhttp://120.52.73.63/data1.cache.directory/media/videos/iphone/402.mp4
p89
sg5
S'http://www.websc.cc/c/29.php'
p90
ssI29
(dp91
g3
Vhttp://120.52.73.63/data1.cache.directory/media/videos/iphone/403.mp4
p92
sg5
S'http://www.websc.cc/c/30.php'
p93
ssI30
(dp94
g3
Vhttp://120.52.73.63/data1.cache.directory/media/videos/iphone/405.mp4
p95
sg5
S'http://www.websc.cc/c/31.php'
p96
ssI31
(dp97
g3
Vhttp://120.52.73.63/data1.cache.directory/media/videos/iphone/407.mp4
p98
sg5
S'http://www.websc.cc/c/32.php'
p99
ssI32
(dp100
g3
Vhttp://120.52.73.63/data1.cache.directory/media/videos/iphone/408.mp4
p101
sg5
S'http://www.websc.cc/c/33.php'
p102
ssI33
(dp103
g3
Vhttp://120.52.73.63/data1.cache.directory/media/videos/iphone/409.mp4
p104
sg5
S'http://www.websc.cc/c/34.php'
p105
ssI34
(dp106
g3
Vhttp://120.52.73.63/data1.cache.directory/media/videos/iphone/410.mp4
p107
sg5
S'http://www.websc.cc/c/35.php'
p108
ssI35
(dp109
g3
Vhttp://120.52.73.63/data1.cache.directory/media/videos/iphone/411.mp4
p110
sg5
S'http://www.websc.cc/c/36.php'
p111
ssI36
(dp112
g3
Vhttp://120.52.73.63/data1.cache.directory/media/videos/iphone/412.mp4
p113
sg5
S'http://www.websc.cc/c/37.php'
p114
ssI37
(dp115
g3
Vhttp://120.52.73.63/data1.cache.directory/media/videos/iphone/413.mp4
p116
sg5
S'http://www.websc.cc/c/38.php'
p117
ssI38
(dp118
g3
Vhttp://120.52.73.63/data1.cache.directory/media/videos/iphone/380.mp4
p119
sg5
S'http://www.websc.cc/c/39.php'
p120
ssI39
(dp121
g3
Vhttp://120.52.73.63/data1.cache.directory/media/videos/iphone/381.mp4
p122
sg5
S'http://www.websc.cc/c/40.php'
p123
ssI40
(dp124
g3
Vhttp://120.52.73.63/data1.cache.directory/media/videos/iphone/382.mp4
p125
sg5
S'http://www.websc.cc/c/41.php'
p126
ssI41
(dp127
g3
Vhttp://120.52.73.63/data1.cache.directory/media/videos/iphone/383.mp4
p128
sg5
S'http://www.websc.cc/c/42.php'
p129
ssI42
(dp130
g3
Vhttp://120.52.73.63/data1.cache.directory/media/videos/iphone/384.mp4
p131
sg5
S'http://www.websc.cc/c/43.php'
p132
ssI43
(dp133
g3
Vhttp://120.52.73.63/data1.cache.directory/media/videos/iphone/385.mp4
p134
sg5
S'http://www.websc.cc/c/44.php'
p135
ssI44
(dp136
g3
Vhttp://120.52.73.63/data1.cache.directory/media/videos/iphone/386.mp4
p137
sg5
S'http://www.websc.cc/c/45.php'
p138
ssI45
(dp139
g3
Vhttp://120.52.73.63/data1.cache.directory/media/videos/iphone/387.mp4
p140
sg5
S'http://www.websc.cc/c/46.php'
p141
ssI46
(dp142
g3
Vhttp://120.52.73.63/data1.cache.directory/media/videos/iphone/388.mp4
p143
sg5
S'http://www.websc.cc/c/47.php'
p144
ssI47
(dp145
g3
Vhttp://120.52.73.63/data1.cache.directory/media/videos/iphone/389.mp4
p146
sg5
S'http://www.websc.cc/c/48.php'
p147
ssI48
(dp148
g3
Vhttp://120.52.73.63/data1.cache.directory/media/videos/iphone/390.mp4
p149
sg5
S'http://www.websc.cc/c/49.php'
p150
ssI49
(dp151
g3
Vhttp://120.52.73.63/data1.cache.directory/media/videos/iphone/391.mp4
p152
sg5
S'http://www.websc.cc/c/50.php'
p153
ssI50
(dp154
g3
Vhttp://120.52.73.63/data1.cache.directory/media/videos/iphone/392.mp4
p155
sg5
S'http://www.websc.cc/c/51.php'
p156
ssI51
(dp157
g3
Vhttp://120.52.73.63/data1.cache.directory/media/videos/iphone/394.mp4
p158
sg5
S'http://www.websc.cc/c/52.php'
p159
ssI52
(dp160
g3
Vhttp://120.52.73.63/data1.cache.directory/media/videos/iphone/1200.mp4
p161
sg5
S'http://www.websc.cc/c/53.php'
p162
ssI53
(dp163
g3
Vhttp://120.52.73.63/data1.cache.directory/media/videos/iphone/1201.mp4
p164
sg5
S'http://www.websc.cc/c/54.php'
p165
ssI54
(dp166
g3
Vhttp://120.52.73.63/data1.cache.directory/media/videos/iphone/1202.mp4
p167
sg5
S'http://www.websc.cc/c/55.php'
p168
ssI55
(dp169
g3
Vhttp://120.52.73.63/data1.cache.directory/media/videos/iphone/1203.mp4
p170
sg5
S'http://www.websc.cc/c/56.php'
p171
ssI56
(dp172
g3
Vhttp://120.52.73.63/data1.cache.directory/media/videos/iphone/1205.mp4
p173
sg5
S'http://www.websc.cc/c/57.php'
p174
ssI57
(dp175
g3
Vhttp://120.52.73.63/data1.cache.directory/media/videos/iphone/1206.mp4
p176
sg5
S'http://www.websc.cc/c/58.php'
p177
ssI58
(dp178
g3
Vhttp://120.52.73.63/data1.cache.directory/media/videos/iphone/1207.mp4
p179
sg5
S'http://www.websc.cc/c/59.php'
p180
ssI59
(dp181
g3
Vhttp://120.52.73.63/data1.cache.directory/media/videos/iphone/1208.mp4
p182
sg5
S'http://www.websc.cc/c/60.php'
p183
ssI60
(dp184
g3
Vhttp://120.52.73.63/data1.cache.directory/media/videos/iphone/1209.mp4
p185
sg5
S'http://www.websc.cc/c/61.php'
p186
ssI61
(dp187
g3
Vhttp://120.52.73.63/data1.cache.directory/media/videos/iphone/1210.mp4
p188
sg5
S'http://www.websc.cc/c/62.php'
p189
ssI62
(dp190
g3
Vhttp://120.52.73.63/data1.cache.directory/media/videos/iphone/1311.mp4
p191
sg5
S'http://www.websc.cc/c/63.php'
p192
ssI63
(dp193
g3
Vhttp://120.52.73.63/data1.cache.directory/media/videos/iphone/1310.mp4
p194
sg5
S'http://www.websc.cc/c/64.php'
p195
ssI64
(dp196
g3
Vhttp://120.52.73.63/data1.cache.directory/media/videos/iphone/1300.mp4
p197
sg5
S'http://www.websc.cc/c/65.php'
p198
ssI65
(dp199
g3
Vhttp://120.52.73.63/data1.cache.directory/media/videos/iphone/1301.mp4
p200
sg5
S'http://www.websc.cc/c/66.php'
p201
ssI66
(dp202
g3
Vhttp://120.52.73.63/data1.cache.directory/media/videos/iphone/1302.mp4
p203
sg5
S'http://www.websc.cc/c/67.php'
p204
ssI67
(dp205
g3
Vhttp://120.52.73.63/data1.cache.directory/media/videos/iphone/1303.mp4
p206
sg5
S'http://www.websc.cc/c/68.php'
p207
ssI68
(dp208
g3
Vhttp://120.52.73.63/data1.cache.directory/media/videos/iphone/1304.mp4
p209
sg5
S'http://www.websc.cc/c/69.php'
p210
ssI69
(dp211
g3
Vhttp://120.52.73.63/data1.cache.directory/media/videos/iphone/1305.mp4
p212
sg5
S'http://www.websc.cc/c/70.php'
p213
ssI70
(dp214
g3
Vhttp://120.52.73.63/data1.cache.directory/media/videos/iphone/1306.mp4
p215
sg5
S'http://www.websc.cc/c/71.php'
p216
ssI71
(dp217
g3
Vhttp://120.52.73.63/data1.cache.directory/media/videos/iphone/1307.mp4
p218
sg5
S'http://www.websc.cc/c/72.php'
p219
ssI72
(dp220
g3
Vhttp://120.52.73.63/data1.cache.directory/media/videos/iphone/1308.mp4
p221
sg5
S'http://www.websc.cc/c/73.php'
p222
ssI73
(dp223
g3
Vhttp://120.52.73.63/data1.cache.directory/media/videos/iphone/1309.mp4
p224
sg5
S'http://www.websc.cc/c/74.php'
p225
ssI74
(dp226
g3
Vhttp://120.52.73.63/data1.cache.directory/media/videos/iphone/1312.mp4
p227
sg5
S'http://www.websc.cc/c/75.php'
p228
ssI75
(dp229
g3
Vhttp://120.52.73.63/data1.cache.directory/media/videos/iphone/1313.mp4
p230
sg5
S'http://www.websc.cc/c/76.php'
p231
ssI76
(dp232
g3
Vhttp://120.52.73.63/data1.cache.directory/media/videos/iphone/1314.mp4
p233
sg5
S'http://www.websc.cc/c/77.php'
p234
ssI77
(dp235
g3
Vhttp://120.52.73.63/data1.cache.directory/media/videos/iphone/1315.mp4
p236
sg5
S'http://www.websc.cc/c/78.php'
p237
ssI78
(dp238
g3
Vhttp://120.52.73.63/data1.cache.directory/media/videos/iphone/1316.mp4
p239
sg5
S'http://www.websc.cc/c/79.php'
p240
ssI79
(dp241
g3
Vhttp://120.52.73.63/data1.cache.directory/media/videos/iphone/1317.mp4
p242
sg5
S'http://www.websc.cc/c/80.php'
p243
ssI80
(dp244
g3
Vhttp://120.52.73.44/adultvideo.science/media/videos/iphone/one_606.mp4
p245
sg5
S'http://www.websc.cc/e/1.php'
p246
ssI81
(dp247
g3
Vhttp://120.52.73.44/adultvideo.science/media/videos/iphone/one_400.mp4
p248
sg5
S'http://www.websc.cc/e/2.php'
p249
ssI82
(dp250
g3
Vhttp://120.52.73.44/adultvideo.science/media/videos/iphone/one_401.mp4
p251
sg5
S'http://www.websc.cc/e/3.php'
p252
ssI83
(dp253
g3
Vhttp://120.52.73.44/adultvideo.science/media/videos/iphone/one_403.mp4
p254
sg5
S'http://www.websc.cc/e/4.php'
p255
ssI84
(dp256
g3
Vhttp://120.52.73.44/adultvideo.science/media/videos/iphone/one_404.mp4
p257
sg5
S'http://www.websc.cc/e/5.php'
p258
ssI85
(dp259
g3
Vhttp://120.52.73.44/adultvideo.science/media/videos/iphone/one_405.mp4
p260
sg5
S'http://www.websc.cc/e/6.php'
p261
ssI86
(dp262
g3
Vhttp://120.52.73.44/adultvideo.science/media/videos/iphone/one_406.mp4
p263
sg5
S'http://www.websc.cc/e/7.php'
p264
ssI87
(dp265
g3
Vhttp://120.52.73.44/adultvideo.science/media/videos/iphone/one_407.mp4
p266
sg5
S'http://www.websc.cc/e/8.php'
p267
ssI88
(dp268
g3
Vhttp://120.52.73.44/adultvideo.science/media/videos/iphone/one_408.mp4
p269
sg5
S'http://www.websc.cc/e/9.php'
p270
ssI89
(dp271
g3
Vhttp://120.52.73.44/adultvideo.science/media/videos/iphone/one_409.mp4
p272
sg5
S'http://www.websc.cc/e/10.php'
p273
ssI90
(dp274
g3
Vhttp://120.52.73.44/adultvideo.science/media/videos/iphone/one_410.mp4
p275
sg5
S'http://www.websc.cc/e/11.php'
p276
ssI91
(dp277
g3
Vhttp://120.52.73.44/adultvideo.science/media/videos/iphone/one_412.mp4
p278
sg5
S'http://www.websc.cc/e/12.php'
p279
ssI92
(dp280
g3
Vhttp://120.52.73.44/adultvideo.science/media/videos/iphone/one_413.mp4
p281
sg5
S'http://www.websc.cc/e/13.php'
p282
ssI93
(dp283
g3
Vhttp://120.52.73.44/adultvideo.science/media/videos/iphone/one_414.mp4
p284
sg5
S'http://www.websc.cc/e/14.php'
p285
ssI94
(dp286
g3
Vhttp://120.52.73.44/adultvideo.science/media/videos/iphone/one_415.mp4
p287
sg5
S'http://www.websc.cc/e/15.php'
p288
ssI95
(dp289
g3
Vhttp://120.52.73.44/adultvideo.science/media/videos/iphone/one_416.mp4
p290
sg5
S'http://www.websc.cc/e/16.php'
p291
ssI96
(dp292
g3
Vhttp://120.52.73.44/adultvideo.science/media/videos/iphone/one_417.mp4
p293
sg5
S'http://www.websc.cc/e/17.php'
p294
ssI97
(dp295
g3
Vhttp://120.52.73.44/adultvideo.science/media/videos/iphone/one_418.mp4
p296
sg5
S'http://www.websc.cc/e/18.php'
p297
ssI98
(dp298
g3
Vhttp://120.52.73.44/adultvideo.science/media/videos/iphone/one_419.mp4
p299
sg5
S'http://www.websc.cc/e/19.php'
p300
ssI99
(dp301
g3
Vhttp://120.52.73.44/adultvideo.science/media/videos/iphone/one_421.mp4
p302
sg5
S'http://www.websc.cc/e/20.php'
p303
ssI100
(dp304
g3
Vhttp://120.52.73.44/adultvideo.science/media/videos/iphone/one_422.mp4
p305
sg5
S'http://www.websc.cc/e/21.php'
p306
ssI101
(dp307
g3
Vhttp://120.52.73.44/adultvideo.science/media/videos/iphone/one_423.mp4
p308
sg5
S'http://www.websc.cc/e/22.php'
p309
ssI102
(dp310
g3
Vhttp://120.52.73.44/adultvideo.science/media/videos/iphone/one_424.mp4
p311
sg5
S'http://www.websc.cc/e/23.php'
p312
ssI103
(dp313
g3
Vhttp://120.52.73.44/adultvideo.science/media/videos/iphone/one_425.mp4
p314
sg5
S'http://www.websc.cc/e/24.php'
p315
ssI104
(dp316
g3
Vhttp://120.52.73.44/adultvideo.science/media/videos/iphone/one_426.mp4
p317
sg5
S'http://www.websc.cc/e/25.php'
p318
ssI105
(dp319
g3
Vhttp://120.52.73.44/adultvideo.science/media/videos/iphone/one_440.mp4
p320
sg5
S'http://www.websc.cc/e/26.php'
p321
ssI106
(dp322
g3
Vhttp://120.52.73.44/adultvideo.science/media/videos/iphone/one_441.mp4
p323
sg5
S'http://www.websc.cc/e/27.php'
p324
ssI107
(dp325
g3
Vhttp://120.52.73.44/adultvideo.science/media/videos/iphone/one_442.mp4
p326
sg5
S'http://www.websc.cc/e/28.php'
p327
ssI108
(dp328
g3
Vhttp://120.52.73.44/adultvideo.science/media/videos/iphone/one_443.mp4
p329
sg5
S'http://www.websc.cc/e/29.php'
p330
ssI109
(dp331
g3
Vhttp://120.52.73.44/adultvideo.science/media/videos/iphone/one_518.mp4
p332
sg5
S'http://www.websc.cc/e/30.php'
p333
ssI110
(dp334
g3
Vhttp://120.52.73.44/adultvideo.science/media/videos/iphone/one_445.mp4
p335
sg5
S'http://www.websc.cc/e/31.php'
p336
ssI111
(dp337
g3
Vhttp://120.52.73.44/adultvideo.science/media/videos/iphone/one_446.mp4
p338
sg5
S'http://www.websc.cc/e/32.php'
p339
ssI112
(dp340
g3
Vhttp://120.52.73.44/adultvideo.science/media/videos/iphone/one_449.mp4
p341
sg5
S'http://www.websc.cc/e/33.php'
p342
ssI113
(dp343
g3
Vhttp://120.52.73.44/adultvideo.science/media/videos/iphone/one_450.mp4
p344
sg5
S'http://www.websc.cc/e/34.php'
p345
ssI114
(dp346
g3
Vhttp://120.52.73.44/adultvideo.science/media/videos/iphone/one_451.mp4
p347
sg5
S'http://www.websc.cc/e/35.php'
p348
ssI115
(dp349
g3
Vhttp://120.52.73.44/adultvideo.science/media/videos/iphone/one_453.mp4
p350
sg5
S'http://www.websc.cc/e/36.php'
p351
ssI116
(dp352
g3
Vhttp://120.52.73.44/adultvideo.science/media/videos/iphone/one_454.mp4
p353
sg5
S'http://www.websc.cc/e/37.php'
p354
ssI117
(dp355
g3
Vhttp://120.52.73.44/adultvideo.science/media/videos/iphone/one_455.mp4
p356
sg5
S'http://www.websc.cc/e/38.php'
p357
ssI118
(dp358
g3
Vhttp://120.52.73.44/adultvideo.science/media/videos/iphone/one_460.mp4
p359
sg5
S'http://www.websc.cc/e/39.php'
p360
ssI119
(dp361
g3
Vhttp://120.52.73.44/adultvideo.science/media/videos/iphone/one_461.mp4
p362
sg5
S'http://www.websc.cc/e/40.php'
p363
ssI120
(dp364
g3
Vhttp://120.52.73.44/adultvideo.science/media/videos/iphone/one_462.mp4
p365
sg5
S'http://www.websc.cc/e/41.php'
p366
ssI121
(dp367
g3
Vhttp://120.52.73.44/adultvideo.science/media/videos/iphone/one_463.mp4
p368
sg5
S'http://www.websc.cc/e/42.php'
p369
ssI122
(dp370
g3
Vhttp://120.52.73.44/adultvideo.science/media/videos/iphone/one_464.mp4
p371
sg5
S'http://www.websc.cc/e/43.php'
p372
ssI123
(dp373
g3
Vhttp://120.52.73.44/adultvideo.science/media/videos/iphone/one_465.mp4
p374
sg5
S'http://www.websc.cc/e/44.php'
p375
ssI124
(dp376
g3
Vhttp://120.52.73.44/adultvideo.science/media/videos/iphone/one_466.mp4
p377
sg5
S'http://www.websc.cc/e/45.php'
p378
ssI125
(dp379
g3
Vhttp://120.52.73.44/adultvideo.science/media/videos/iphone/one_467.mp4
p380
sg5
S'http://www.websc.cc/e/46.php'
p381
ssI126
(dp382
g3
Vhttp://120.52.73.44/adultvideo.science/media/videos/iphone/one_469.mp4
p383
sg5
S'http://www.websc.cc/e/47.php'
p384
ssI127
(dp385
g3
Vhttp://120.52.73.44/adultvideo.science/media/videos/iphone/one_468.mp4
p386
sg5
S'http://www.websc.cc/e/48.php'
p387
ssI128
(dp388
g3
Vhttp://120.52.73.44/adultvideo.science/media/videos/iphone/one_470.mp4
p389
sg5
S'http://www.websc.cc/e/49.php'
p390
ssI129
(dp391
g3
Vhttp://120.52.73.44/adultvideo.science/media/videos/iphone/one_471.mp4
p392
sg5
S'http://www.websc.cc/e/50.php'
p393
ssI130
(dp394
g3
Vhttp://120.52.73.44/adultvideo.science/media/videos/iphone/one_472.mp4
p395
sg5
S'http://www.websc.cc/e/51.php'
p396
ssI131
(dp397
g3
Vhttp://120.52.73.44/adultvideo.science/media/videos/iphone/one_473.mp4
p398
sg5
S'http://www.websc.cc/e/52.php'
p399
ssI132
(dp400
g3
Vhttp://120.52.73.44/adultvideo.science/media/videos/iphone/one_476.mp4
p401
sg5
S'http://www.websc.cc/e/53.php'
p402
ssI133
(dp403
g3
Vhttp://120.52.73.44/adultvideo.science/media/videos/iphone/one_477.mp4
p404
sg5
S'http://www.websc.cc/e/54.php'
p405
ssI134
(dp406
g3
Vhttp://120.52.73.44/adultvideo.science/media/videos/iphone/one_478.mp4
p407
sg5
S'http://www.websc.cc/e/55.php'
p408
ssI135
(dp409
g3
Vhttp://120.52.73.44/adultvideo.science/media/videos/iphone/one_479.mp4
p410
sg5
S'http://www.websc.cc/e/56.php'
p411
ssI136
(dp412
g3
Vhttp://120.52.73.44/adultvideo.science/media/videos/iphone/one_480.mp4
p413
sg5
S'http://www.websc.cc/e/57.php'
p414
ssI137
(dp415
g3
Vhttp://120.52.73.44/adultvideo.science/media/videos/iphone/one_481.mp4
p416
sg5
S'http://www.websc.cc/e/58.php'
p417
ssI138
(dp418
g3
Vhttp://120.52.73.44/adultvideo.science/media/videos/iphone/one_482.mp4
p419
sg5
S'http://www.websc.cc/e/59.php'
p420
ssI139
(dp421
g3
Vhttp://120.52.73.44/adultvideo.science/media/videos/iphone/one_483.mp4
p422
sg5
S'http://www.websc.cc/e/60.php'
p423
ssI140
(dp424
g3
Vhttp://120.52.73.44/adultvideo.science/media/videos/iphone/one_484.mp4
p425
sg5
S'http://www.websc.cc/e/61.php'
p426
ssI141
(dp427
g3
Vhttp://120.52.73.44/adultvideo.science/media/videos/iphone/one_485.mp4
p428
sg5
S'http://www.websc.cc/e/62.php'
p429
ssI142
(dp430
g3
Vhttp://120.52.73.44/adultvideo.science/media/videos/iphone/one_490.mp4
p431
sg5
S'http://www.websc.cc/e/63.php'
p432
ssI143
(dp433
g3
Vhttp://120.52.73.44/adultvideo.science/media/videos/iphone/one_491.mp4
p434
sg5
S'http://www.websc.cc/e/64.php'
p435
ssI144
(dp436
g3
Vhttp://120.52.73.44/adultvideo.science/media/videos/iphone/one_492.mp4
p437
sg5
S'http://www.websc.cc/e/65.php'
p438
ssI145
(dp439
g3
Vhttp://120.52.73.44/adultvideo.science/media/videos/iphone/one_493.mp4
p440
sg5
S'http://www.websc.cc/e/66.php'
p441
ssI146
(dp442
g3
Vhttp://120.52.73.44/adultvideo.science/media/videos/iphone/one_494.mp4
p443
sg5
S'http://www.websc.cc/e/67.php'
p444
ssI147
(dp445
g3
Vhttp://120.52.73.44/adultvideo.science/media/videos/iphone/one_495.mp4
p446
sg5
S'http://www.websc.cc/e/68.php'
p447
ssI148
(dp448
g3
Vhttp://120.52.73.44/adultvideo.science/media/videos/iphone/one_496.mp4
p449
sg5
S'http://www.websc.cc/e/69.php'
p450
ssI149
(dp451
g3
Vhttp://120.52.73.44/adultvideo.science/media/videos/iphone/one_497.mp4
p452
sg5
S'http://www.websc.cc/e/70.php'
p453
ssI150
(dp454
g3
Vhttp://120.52.73.44/adultvideo.science/media/videos/iphone/one_517.mp4
p455
sg5
S'http://www.websc.cc/e/71.php'
p456
ssI151
(dp457
g3
Vhttp://120.52.73.44/adultvideo.science/media/videos/iphone/one_499.mp4
p458
sg5
S'http://www.websc.cc/e/72.php'
p459
ssI152
(dp460
g3
Vhttp://120.52.73.44/adultvideo.science/media/videos/iphone/one_500.mp4
p461
sg5
S'http://www.websc.cc/e/73.php'
p462
ssI153
(dp463
g3
Vhttp://120.52.73.44/adultvideo.science/media/videos/iphone/one_510.mp4
p464
sg5
S'http://www.websc.cc/e/74.php'
p465
ssI154
(dp466
g3
Vhttp://120.52.73.44/adultvideo.science/media/videos/iphone/one_511.mp4
p467
sg5
S'http://www.websc.cc/e/75.php'
p468
ssI155
(dp469
g3
Vhttp://120.52.73.44/adultvideo.science/media/videos/iphone/one_512.mp4
p470
sg5
S'http://www.websc.cc/e/76.php'
p471
ssI156
(dp472
g3
Vhttp://120.52.73.44/adultvideo.science/media/videos/iphone/one_513.mp4
p473
sg5
S'http://www.websc.cc/e/77.php'
p474
ssI157
(dp475
g3
Vhttp://120.52.73.44/adultvideo.science/media/videos/iphone/one_514.mp4
p476
sg5
S'http://www.websc.cc/e/78.php'
p477
ssI158
(dp478
g3
Vhttp://120.52.73.44/adultvideo.science/media/videos/iphone/one_515.mp4
p479
sg5
S'http://www.websc.cc/e/79.php'
p480
ssI159
(dp481
g3
Vhttp://120.52.73.44/adultvideo.science/media/videos/iphone/one_516.mp4
p482
sg5
S'http://www.websc.cc/e/80.php'
p483
ssI160
(dp484
g3
Vhttp://dlqncdn.miaopai.com/stream/KVdMES35FoEStmwo~nF1jw__.mp4
p485
sg5
S'http://www.websc.cc/f/1.php'
p486
ssI161
(dp487
g3
Vhttp://dlqncdn.miaopai.com/stream/B4sqpkQzulBoMl4O9OOwng__.mp4
p488
sg5
S'http://www.websc.cc/f/2.php'
p489
ssI162
(dp490
g3
Vhttp://dlqncdn.miaopai.com/stream/b9bzQSFqwXy0gR35YBmmQQ__.mp4
p491
sg5
S'http://www.websc.cc/f/3.php'
p492
ssI163
(dp493
g3
Vhttp://dlqncdn.miaopai.com/stream/j70zUOF2Pr3tTe7fPvwstQ__.mp4
p494
sg5
S'http://www.websc.cc/f/4.php'
p495
ssI164
(dp496
g3
Vhttp://dlqncdn.miaopai.com/stream/cnbqmFkAtfTgxQ~aLPuoWQ__.mp4
p497
sg5
S'http://www.websc.cc/f/5.php'
p498
ssI165
(dp499
g3
Vhttp://dlqncdn.miaopai.com/stream/IUuQVX2HgBQ39DKj69URLw__.mp4
p500
sg5
S'http://www.websc.cc/f/6.php'
p501
ssI166
(dp502
g3
Vhttp://dlqncdn.miaopai.com/stream/Rq9LslWiAI2iLd7qMgxd2w__.mp4
p503
sg5
S'http://www.websc.cc/f/7.php'
p504
ssI167
(dp505
g3
Vhttp://dlqncdn.miaopai.com/stream/Yu5KKWKPP~zVzASxD4nG3w__.mp4
p506
sg5
S'http://www.websc.cc/f/8.php'
p507
ssI168
(dp508
g3
Vhttp://dlqncdn.miaopai.com/stream/msRC9Vbddm8Tnf5-7lP3CA__.mp4
p509
sg5
S'http://www.websc.cc/f/9.php'
p510
ssI169
(dp511
g3
Vhttp://dlqncdn.miaopai.com/stream/gw4vpwuDFLTvWuvAMpWyug__.mp4
p512
sg5
S'http://www.websc.cc/f/10.php'
p513
ssI170
(dp514
g3
Vhttp://dlqncdn.miaopai.com/stream/FM0QQpFfgWFMBy0e6jU3wg__.mp4
p515
sg5
S'http://www.websc.cc/f/11.php'
p516
ssI171
(dp517
g3
Vhttp://dlqncdn.miaopai.com/stream/rvGAj1q4TCjhf6HoGz-hKg__.mp4
p518
sg5
S'http://www.websc.cc/f/12.php'
p519
ssI172
(dp520
g3
Vhttp://dlqncdn.miaopai.com/stream/qzW95vhzZk4-63RK1-v36g__.mp4
p521
sg5
S'http://www.websc.cc/f/13.php'
p522
ssI173
(dp523
g3
Vhttp://dlqncdn.miaopai.com/stream/7hLResWsgZSRTTNGhyX0Gg__.mp4
p524
sg5
S'http://www.websc.cc/f/14.php'
p525
ssI174
(dp526
g3
Vhttp://dlqncdn.miaopai.com/stream/7hLResWsgZSRTTNGhyX0Gg__.mp4
p527
sg5
S'http://www.websc.cc/f/15.php'
p528
ssI175
(dp529
g3
Vhttp://dlqncdn.miaopai.com/stream/Ytg0qdL1CePOvyHbAUFc7A__.mp4
p530
sg5
S'http://www.websc.cc/f/16.php'
p531
ssI176
(dp532
g3
Vhttp://dlqncdn.miaopai.com/stream/OmQDGZiMS~1jJf8391jVuw__.mp4
p533
sg5
S'http://www.websc.cc/f/17.php'
p534
ssI177
(dp535
g3
Vhttp://dlqncdn.miaopai.com/stream/Ixiu4a0tkRUz7Or-VJkabw__.mp4
p536
sg5
S'http://www.websc.cc/f/18.php'
p537
ssI178
(dp538
g3
Vhttp://dlqncdn.miaopai.com/stream/iDm16GC3VnXlb4nrnuS4Rw__.mp4
p539
sg5
S'http://www.websc.cc/f/19.php'
p540
ssI179
(dp541
g3
Vhttp://dlqncdn.miaopai.com/stream/8FQ54OheAf-YP0TuIFWHVw__.mp4
p542
sg5
S'http://www.websc.cc/f/20.php'
p543
ssI180
(dp544
g3
Vhttp://dlqncdn.miaopai.com/stream/GbXZwZO5iXrx5WWYW0HDlw__.mp4
p545
sg5
S'http://www.websc.cc/f/21.php'
p546
ssI181
(dp547
g3
Vhttp://dlqncdn.miaopai.com/stream/Xk46cCDjeIVSuEpfXZKFjg__.mp4
p548
sg5
S'http://www.websc.cc/f/22.php'
p549
ssI182
(dp550
g3
Vhttp://dlqncdn.miaopai.com/stream/Zl2LSo5EBhlkK1m1Wca8wg__.mp4
p551
sg5
S'http://www.websc.cc/f/23.php'
p552
ssI183
(dp553
g3
Vhttp://dlqncdn.miaopai.com/stream/9neWnUyCNRADrb5RitP9QQ__.mp4
p554
sg5
S'http://www.websc.cc/f/24.php'
p555
ssI184
(dp556
g3
Vhttp://dlqncdn.miaopai.com/stream/JdwOSjyKc2uSiHJ2WEjItA__.mp4
p557
sg5
S'http://www.websc.cc/f/25.php'
p558
ssI185
(dp559
g3
Vhttp://dlqncdn.miaopai.com/stream/oIg~KAgs92nq-eA79x4Tag__.mp4
p560
sg5
S'http://www.websc.cc/f/26.php'
p561
ssI186
(dp562
g3
Vhttp://dlqncdn.miaopai.com/stream/Cd3SQ9UVokDS0WobW8NTKw__.mp4
p563
sg5
S'http://www.websc.cc/f/27.php'
p564
ssI187
(dp565
g3
Vhttp://dlqncdn.miaopai.com/stream/w2Lt1nwl7iMvVuWr4fwRYQ__.mp4
p566
sg5
S'http://www.websc.cc/f/28.php'
p567
ssI188
(dp568
g3
Vhttp://dlqncdn.miaopai.com/stream/Y2IqUykfuFfGNvKITQ1YgQ__.mp4
p569
sg5
S'http://www.websc.cc/f/29.php'
p570
ssI189
(dp571
g3
Vhttp://dlqncdn.miaopai.com/stream/Ok9bTr5a0YOBZsAEvvDasg__.mp4
p572
sg5
S'http://www.websc.cc/f/30.php'
p573
ssI190
(dp574
g3
Vhttp://dlqncdn.miaopai.com/stream/m1c9Y4sZcbUUq3EumeSDNg__.mp4
p575
sg5
S'http://www.websc.cc/f/31.php'
p576
ssI191
(dp577
g3
Vhttp://dlqncdn.miaopai.com/stream/LoK5nK5jjOnUnyyFxd~8MQ__.mp4
p578
sg5
S'http://www.websc.cc/f/32.php'
p579
ssI192
(dp580
g3
Vhttp://dlqncdn.miaopai.com/stream/9dMXI6mz6J4g8mQ6ftaSCQ__.mp4
p581
sg5
S'http://www.websc.cc/f/33.php'
p582
ssI193
(dp583
g3
Vhttp://dlqncdn.miaopai.com/stream/F9V-8YpzNSm~Eu7Mx9vOHA__.mp4
p584
sg5
S'http://www.websc.cc/f/34.php'
p585
ssI194
(dp586
g3
Vhttp://dlqncdn.miaopai.com/stream/ZwhrGcyGMk3ZRlbNH~NFcw__.mp4
p587
sg5
S'http://www.websc.cc/f/35.php'
p588
ssI195
(dp589
g3
Vhttp://dlqncdn.miaopai.com/stream/k4rdQnkeAyjUQ9p4y6-VKA__.mp4
p590
sg5
S'http://www.websc.cc/f/36.php'
p591
ssI196
(dp592
g3
Vhttp://dlqncdn.miaopai.com/stream/78xX00gW43JtTt1QftYcuw__.mp4
p593
sg5
S'http://www.websc.cc/f/37.php'
p594
ssI197
(dp595
g3
Vhttp://dlqncdn.miaopai.com/stream/ilQAwFKvSWFrgLDuU60U1g__.mp4
p596
sg5
S'http://www.websc.cc/f/38.php'
p597
ssI198
(dp598
g3
Vhttp://dlqncdn.miaopai.com/stream/0llh99XJjq4EvJnDGPfXiA__.mp4
p599
sg5
S'http://www.websc.cc/f/39.php'
p600
ssI199
(dp601
g3
Vhttp://dlqncdn.miaopai.com/stream/lPM001Gut~Djb0uXUewh3A__.mp4
p602
sg5
S'http://www.websc.cc/f/40.php'
p603
ssI200
(dp604
g3
Vhttp://dlqncdn.miaopai.com/stream/OfoBiL9dmzLkwE8j-Mhn~w__.mp4
p605
sg5
S'http://www.websc.cc/f/41.php'
p606
ssI201
(dp607
g3
Vhttp://dlqncdn.miaopai.com/stream/q44GT9ZEWv3iNv84RHiR2Q__.mp4
p608
sg5
S'http://www.websc.cc/f/42.php'
p609
ssI202
(dp610
g3
Vhttp://dlqncdn.miaopai.com/stream/vbL3~pLQIZ8T29xFwRno2A__.mp4
p611
sg5
S'http://www.websc.cc/f/43.php'
p612
ssI203
(dp613
g3
Vhttp://dlqncdn.miaopai.com/stream/kQ70ZjEmRSAEOzqVlkjNVw__.mp4
p614
sg5
S'http://www.websc.cc/f/44.php'
p615
ssI204
(dp616
g3
Vhttp://dlqncdn.miaopai.com/stream/Ll4rTjlvMTH~ZWqvDIk5kA__.mp4
p617
sg5
S'http://www.websc.cc/f/45.php'
p618
ssI205
(dp619
g3
Vhttp://dlqncdn.miaopai.com/stream/knJwSk4j0or2BgMRk6iyBg__.mp4
p620
sg5
S'http://www.websc.cc/f/46.php'
p621
ssI206
(dp622
g3
Vhttp://dlqncdn.miaopai.com/stream/36thOKdGOmxtd2U9O7LEuw__.mp4
p623
sg5
S'http://www.websc.cc/f/47.php'
p624
ssI207
(dp625
g3
Vhttp://dlqncdn.miaopai.com/stream/7cxo4zhNzo2ywo2hAFZedg__.mp4
p626
sg5
S'http://www.websc.cc/f/48.php'
p627
ssI208
(dp628
g3
Vhttp://dlqncdn.miaopai.com/stream/v6DsCsiUiG3BCvIX098Kqw__.mp4
p629
sg5
S'http://www.websc.cc/f/49.php'
p630
ssI209
(dp631
g3
Vhttp://dlqncdn.miaopai.com/stream/jIF~3DlNuDoopsNMUpSepA__.mp4
p632
sg5
S'http://www.websc.cc/f/50.php'
p633
ssI210
(dp634
g3
Vhttp://dlqncdn.miaopai.com/stream/KT-v5gdsqBb7qkdYwruEDA__.mp4
p635
sg5
S'http://www.websc.cc/f/51.php'
p636
ssI211
(dp637
g3
Vhttp://dlqncdn.miaopai.com/stream/yN0V8yTOeGsXGo4dqPrFOQ__.mp4
p638
sg5
S'http://www.websc.cc/f/52.php'
p639
ssI212
(dp640
g3
Vhttp://dlqncdn.miaopai.com/stream/oCA-Wj4SmrH02uym3MfNUQ__.mp4
p641
sg5
S'http://www.websc.cc/f/53.php'
p642
ssI213
(dp643
g3
Vhttp://dlqncdn.miaopai.com/stream/UTVc05Crgf-OZreUeTIRBw__.mp4
p644
sg5
S'http://www.websc.cc/f/54.php'
p645
ssI214
(dp646
g3
Vhttp://dlqncdn.miaopai.com/stream/mJxxF4BOzlypzXDPQoMkxw__.mp4
p647
sg5
S'http://www.websc.cc/f/55.php'
p648
ssI215
(dp649
g3
Vhttp://dlqncdn.miaopai.com/stream/cMuD1v4bhSkqMrPF~YaTVQ__.mp4
p650
sg5
S'http://www.websc.cc/f/56.php'
p651
ssI216
(dp652
g3
Vhttp://dlqncdn.miaopai.com/stream/xzm16ck2WNBBkew6-fmEMA__.mp4
p653
sg5
S'http://www.websc.cc/f/57.php'
p654
ssI217
(dp655
g3
Vhttp://dlqncdn.miaopai.com/stream/wge~DDTF8zRjBshob4IrxQ__.mp4
p656
sg5
S'http://www.websc.cc/f/58.php'
p657
ssI218
(dp658
g3
Vhttp://dlqncdn.miaopai.com/stream/CUgj8IV3OsrNby0i4pDOCA__.mp4
p659
sg5
S'http://www.websc.cc/f/59.php'
p660
ssI219
(dp661
g3
Vhttp://dlqncdn.miaopai.com/stream/i~ZCOLY9f51TgYSH~DTxeQ__.mp4
p662
sg5
S'http://www.websc.cc/f/60.php'
p663
ssI220
(dp664
g3
Vhttp://dlqncdn.miaopai.com/stream/t-nZD2JiEjVTYh8~mlCeGg__.mp4
p665
sg5
S'http://www.websc.cc/f/61.php'
p666
ssI221
(dp667
g3
Vhttp://dlqncdn.miaopai.com/stream/RJV8wJsIRpETpU3WxLt4jA__.mp4
p668
sg5
S'http://www.websc.cc/f/62.php'
p669
ssI222
(dp670
g3
Vhttp://dlqncdn.miaopai.com/stream/KDRNRWx4G8Y~bwHDOnkOpg__.mp4
p671
sg5
S'http://www.websc.cc/f/63.php'
p672
ssI223
(dp673
g3
Vhttp://dlqncdn.miaopai.com/stream/VKGfO5PSnD7wi4z5uZG8MQ__.mp4
p674
sg5
S'http://www.websc.cc/f/64.php'
p675
ssI224
(dp676
g3
Vhttp://dlqncdn.miaopai.com/stream/vzGJGFx94mmgzKdn3-gPug__.mp4
p677
sg5
S'http://www.websc.cc/f/65.php'
p678
ssI225
(dp679
g3
Vhttp://dlqncdn.miaopai.com/stream/k0xAUoRhZxPTmuX-2dNDZw__.mp4
p680
sg5
S'http://www.websc.cc/f/66.php'
p681
ssI226
(dp682
g3
Vhttp://dlqncdn.miaopai.com/stream/sSNbfgv10Uklz1l9YUY5xQ__.mp4
p683
sg5
S'http://www.websc.cc/f/67.php'
p684
ssI227
(dp685
g3
Vhttp://dlqncdn.miaopai.com/stream/ugmcCe1qSqwCrOCSdM5F8Q__.mp4
p686
sg5
S'http://www.websc.cc/f/68.php'
p687
ssI228
(dp688
g3
Vhttp://dlqncdn.miaopai.com/stream/wAieF9UCY4gVBcyf1nztGA__.mp4
p689
sg5
S'http://www.websc.cc/f/69.php'
p690
ssI229
(dp691
g3
Vhttp://dlqncdn.miaopai.com/stream/VXBA03NWdxEvG51m6d3wVQ__.mp4
p692
sg5
S'http://www.websc.cc/f/70.php'
p693
ssI230
(dp694
g3
Vhttp://dlqncdn.miaopai.com/stream/iMaEz~-HfwEcsMA4kP7n~g__.mp4
p695
sg5
S'http://www.websc.cc/f/71.php'
p696
ssI231
(dp697
g3
Vhttp://dlqncdn.miaopai.com/stream/sYNvBsSmdhhu7lHieKD0Wg__.mp4
p698
sg5
S'http://www.websc.cc/f/72.php'
p699
ssI232
(dp700
g3
Vhttp://dlqncdn.miaopai.com/stream/yoyo~HPHDWdUKqpc9~M0PA__.mp4
p701
sg5
S'http://www.websc.cc/f/73.php'
p702
ssI233
(dp703
g3
Vhttp://dlqncdn.miaopai.com/stream/dZSAZw~Z9ivFslER5oWo~g__.mp4
p704
sg5
S'http://www.websc.cc/f/74.php'
p705
ssI234
(dp706
g3
Vhttp://dlqncdn.miaopai.com/stream/bMcUOpB70THWp0f9iOO~fA__.mp4
p707
sg5
S'http://www.websc.cc/f/75.php'
p708
ssI235
(dp709
g3
Vhttp://dlqncdn.miaopai.com/stream/Uj4g4d8ZHkda5zktIUhFYQ__.mp4
p710
sg5
S'http://www.websc.cc/f/76.php'
p711
ssI236
(dp712
g3
Vhttp://dlqncdn.miaopai.com/stream/oY62bpIUA5maanITW2y~HQ__.mp4
p713
sg5
S'http://www.websc.cc/f/77.php'
p714
ssI237
(dp715
g3
Vhttp://dlqncdn.miaopai.com/stream/7kprVb0FTDT4HPGe8AGDJg__.mp4
p716
sg5
S'http://www.websc.cc/f/78.php'
p717
ssI238
(dp718
g3
Vhttp://dlqncdn.miaopai.com/stream/ZToVcbrbWO1tJ1LTgJoOYg__.mp4
p719
sg5
S'http://www.websc.cc/f/79.php'
p720
ssI239
(dp721
g3
Vhttp://dlqncdn.miaopai.com/stream/q9K7lK2-7RmVhT6Kc5fGig__.mp4
p722
sg5
S'http://www.websc.cc/f/80.php'
p723
ssI240
(dp724
g3
Vhttp://dlqncdn.miaopai.com/stream/cdhPhX2Rgj7lK~TGI9WCYA__.mp4
p725
sg5
S'http://www.websc.cc/f/81.php'
p726
ssI241
(dp727
g3
Vhttp://dlqncdn.miaopai.com/stream/HBshnPXupFjrXohxY6iHhw__.mp4
p728
sg5
S'http://www.websc.cc/f/82.php'
p729
ssI242
(dp730
g3
Vhttp://dlqncdn.miaopai.com/stream/kONQBw-LhExfRfw0MekUAw__.mp4
p731
sg5
S'http://www.websc.cc/f/83.php'
p732
ssI243
(dp733
g3
Vhttp://dlqncdn.miaopai.com/stream/lUqxeHv8t6WdWyyXd1UPjw__.mp4
p734
sg5
S'http://www.websc.cc/f/84.php'
p735
ssI244
(dp736
g3
Vhttp://dlqncdn.miaopai.com/stream/7gE~hk8n4ABsrnH7e13wsg__.mp4
p737
sg5
S'http://www.websc.cc/f/85.php'
p738
ssI245
(dp739
g3
Vhttp://dlqncdn.miaopai.com/stream/elEs1p5yxMiSvKHPLTfkhA__.mp4
p740
sg5
S'http://www.websc.cc/f/86.php'
p741
ssI246
(dp742
g3
Vhttp://dlqncdn.miaopai.com/stream/NYu0xjUQFlj3B2iuEM4wcA__.mp4
p743
sg5
S'http://www.websc.cc/f/87.php'
p744
ssI247
(dp745
g3
Vhttp://dlqncdn.miaopai.com/stream/OshBQUTKNjjHZUbf4fSnAw__.mp4
p746
sg5
S'http://www.websc.cc/f/88.php'
p747
ssI248
(dp748
g3
Vhttp://dlqncdn.miaopai.com/stream/h3SUg5BXc55YcAJBrrnBKw__.mp4
p749
sg5
S'http://www.websc.cc/f/89.php'
p750
ssI249
(dp751
g3
Vhttp://dlqncdn.miaopai.com/stream/KMIYCoTlPbuIpgQLXYRIGA__.mp4
p752
sg5
S'http://www.websc.cc/f/90.php'
p753
ssI250
(dp754
g3
Vhttp://dlqncdn.miaopai.com/stream/otyyE6v~sEEkGX78gqgMug__.mp4
p755
sg5
S'http://www.websc.cc/f/91.php'
p756
ssI251
(dp757
g3
Vhttp://dlqncdn.miaopai.com/stream/rXs1jxLwBrQa7GRhdH99Uw__.mp4
p758
sg5
S'http://www.websc.cc/f/92.php'
p759
ssI252
(dp760
g3
Vhttp://dlqncdn.miaopai.com/stream/p5s58J7mjRXAKbYsYXXZ~A__.mp4
p761
sg5
S'http://www.websc.cc/f/93.php'
p762
ssI253
(dp763
g3
Vhttp://dlqncdn.miaopai.com/stream/zSR58eZBQyKvL68X3Xh4uQ__.mp4
p764
sg5
S'http://www.websc.cc/f/94.php'
p765
ssI254
(dp766
g3
Vhttp://dlqncdn.miaopai.com/stream/Iy03zY1-5k23~DmlfbH~bQ__.mp4
p767
sg5
S'http://www.websc.cc/f/95.php'
p768
ssI255
(dp769
g3
Vhttp://dlqncdn.miaopai.com/stream/~~v9~9C-xZ23KFHK1Luv-A__.mp4
p770
sg5
S'http://www.websc.cc/f/96.php'
p771
ssI256
(dp772
g3
Vhttp://dlqncdn.miaopai.com/stream/9fnbGLmlH4FMJB7km6d-1w__.mp4
p773
sg5
S'http://www.websc.cc/f/97.php'
p774
ssI257
(dp775
g3
Vhttp://dlqncdn.miaopai.com/stream/DmzmHFxANWRSDj6K9C8~yw__.mp4
p776
sg5
S'http://www.websc.cc/f/98.php'
p777
ssI258
(dp778
g3
Vhttp://dlqncdn.miaopai.com/stream/y7Uh321JhsshXDBN9G1HzA__.mp4
p779
sg5
S'http://www.websc.cc/f/99.php'
p780
ssI259
(dp781
g3
Vhttp://120.52.73.35/adultvideo.science/media/videos/iphone/2800.mp4
p782
sg5
S'http://www.websc.cc/h/1.php'
p783
ssI260
(dp784
g3
Vhttp://120.52.73.35/adultvideo.science/media/videos/iphone/2801.mp4
p785
sg5
S'http://www.websc.cc/h/2.php'
p786
ssI261
(dp787
g3
Vhttp://120.52.73.35/adultvideo.science/media/videos/iphone/2802.mp4
p788
sg5
S'http://www.websc.cc/h/3.php'
p789
ssI262
(dp790
g3
Vhttp://120.52.73.35/adultvideo.science/media/videos/iphone/2803.mp4
p791
sg5
S'http://www.websc.cc/h/4.php'
p792
ssI263
(dp793
g3
Vhttp://120.52.73.35/adultvideo.science/media/videos/iphone/2804.mp4
p794
sg5
S'http://www.websc.cc/h/5.php'
p795
ssI264
(dp796
g3
Vhttp://120.52.73.35/adultvideo.science/media/videos/iphone/2805.mp4
p797
sg5
S'http://www.websc.cc/h/6.php'
p798
ssI265
(dp799
g3
Vhttp://120.52.73.35/adultvideo.science/media/videos/iphone/2806.mp4
p800
sg5
S'http://www.websc.cc/h/7.php'
p801
ssI266
(dp802
g3
Vhttp://120.52.73.35/adultvideo.science/media/videos/iphone/2807.mp4
p803
sg5
S'http://www.websc.cc/h/8.php'
p804
ssI267
(dp805
g3
Vhttp://120.52.73.35/adultvideo.science/media/videos/iphone/2808.mp4
p806
sg5
S'http://www.websc.cc/h/9.php'
p807
ssI268
(dp808
g3
Vhttp://120.52.73.35/adultvideo.science/media/videos/iphone/2809.mp4
p809
sg5
S'http://www.websc.cc/h/10.php'
p810
ssI269
(dp811
g3
Vhttp://120.52.73.35/adultvideo.science/media/videos/iphone/2810.mp4
p812
sg5
S'http://www.websc.cc/h/11.php'
p813
ssI270
(dp814
g3
Vhttp://120.52.73.35/adultvideo.science/media/videos/iphone/2811.mp4
p815
sg5
S'http://www.websc.cc/h/12.php'
p816
ssI271
(dp817
g3
Vhttp://120.52.73.35/adultvideo.science/media/videos/iphone/2812.mp4
p818
sg5
S'http://www.websc.cc/h/13.php'
p819
ssI272
(dp820
g3
Vhttp://120.52.73.35/adultvideo.science/media/videos/iphone/2813.mp4
p821
sg5
S'http://www.websc.cc/h/14.php'
p822
ssI273
(dp823
g3
Vhttp://120.52.73.35/adultvideo.science/media/videos/iphone/2814.mp4
p824
sg5
S'http://www.websc.cc/h/15.php'
p825
ssI274
(dp826
g3
Vhttp://120.52.73.35/adultvideo.science/media/videos/iphone/2816.mp4
p827
sg5
S'http://www.websc.cc/h/16.php'
p828
ssI275
(dp829
g3
Vhttp://120.52.73.35/adultvideo.science/media/videos/iphone/2817.mp4
p830
sg5
S'http://www.websc.cc/h/17.php'
p831
ssI276
(dp832
g3
Vhttp://120.52.73.35/adultvideo.science/media/videos/iphone/2818.mp4
p833
sg5
S'http://www.websc.cc/h/18.php'
p834
ssI277
(dp835
g3
Vhttp://120.52.73.35/adultvideo.science/media/videos/iphone/2819.mp4
p836
sg5
S'http://www.websc.cc/h/19.php'
p837
ssI278
(dp838
g3
Vhttp://120.52.73.35/adultvideo.science/media/videos/iphone/2822.mp4
p839
sg5
S'http://www.websc.cc/h/20.php'
p840
ssI279
(dp841
g3
Vhttp://120.52.73.35/adultvideo.science/media/videos/iphone/2824.mp4
p842
sg5
S'http://www.websc.cc/h/21.php'
p843
ssI280
(dp844
g3
Vhttp://120.52.73.35/adultvideo.science/media/videos/iphone/2825.mp4
p845
sg5
S'http://www.websc.cc/h/22.php'
p846
ssI281
(dp847
g3
Vhttp://120.52.73.35/adultvideo.science/media/videos/iphone/2826.mp4
p848
sg5
S'http://www.websc.cc/h/23.php'
p849
ssI282
(dp850
g3
Vhttp://120.52.73.35/adultvideo.science/media/videos/iphone/2827.mp4
p851
sg5
S'http://www.websc.cc/h/24.php'
p852
ssI283
(dp853
g3
Vhttp://120.52.73.35/adultvideo.science/media/videos/iphone/2828.mp4
p854
sg5
S'http://www.websc.cc/h/25.php'
p855
ssI284
(dp856
g3
Vhttp://120.52.73.35/adultvideo.science/media/videos/iphone/2829.mp4
p857
sg5
S'http://www.websc.cc/h/26.php'
p858
ssI285
(dp859
g3
Vhttp://120.52.73.35/adultvideo.science/media/videos/iphone/2830.mp4
p860
sg5
S'http://www.websc.cc/h/27.php'
p861
ssI286
(dp862
g3
Vhttp://120.52.73.35/adultvideo.science/media/videos/iphone/2831.mp4
p863
sg5
S'http://www.websc.cc/h/28.php'
p864
ssI287
(dp865
g3
Vhttp://120.52.73.35/adultvideo.science/media/videos/iphone/2832.mp4
p866
sg5
S'http://www.websc.cc/h/29.php'
p867
ssI288
(dp868
g3
Vhttp://120.52.73.35/adultvideo.science/media/videos/iphone/2833.mp4
p869
sg5
S'http://www.websc.cc/h/30.php'
p870
ssI289
(dp871
g3
Vhttp://120.52.73.35/adultvideo.science/media/videos/iphone/2834.mp4
p872
sg5
S'http://www.websc.cc/h/31.php'
p873
ssI290
(dp874
g3
Vhttp://120.52.73.35/adultvideo.science/media/videos/iphone/2835.mp4
p875
sg5
S'http://www.websc.cc/h/32.php'
p876
ssI291
(dp877
g3
Vhttp://120.52.73.35/adultvideo.science/media/videos/iphone/2836.mp4
p878
sg5
S'http://www.websc.cc/h/33.php'
p879
ssI292
(dp880
g3
Vhttp://120.52.73.35/adultvideo.science/media/videos/iphone/2837.mp4
p881
sg5
S'http://www.websc.cc/h/34.php'
p882
ssI293
(dp883
g3
Vhttp://120.52.73.35/adultvideo.science/media/videos/iphone/2838.mp4
p884
sg5
S'http://www.websc.cc/h/35.php'
p885
ssI294
(dp886
g3
Vhttp://120.52.73.35/adultvideo.science/media/videos/iphone/2839.mp4
p887
sg5
S'http://www.websc.cc/h/36.php'
p888
ssI295
(dp889
g3
Vhttp://120.52.73.35/adultvideo.science/media/videos/iphone/2841.mp4
p890
sg5
S'http://www.websc.cc/h/37.php'
p891
ssI296
(dp892
g3
Vhttp://120.52.73.35/adultvideo.science/media/videos/iphone/2842.mp4
p893
sg5
S'http://www.websc.cc/h/38.php'
p894
ssI297
(dp895
g3
Vhttp://120.52.73.35/adultvideo.science/media/videos/iphone/2843.mp4
p896
sg5
S'http://www.websc.cc/h/39.php'
p897
ssI298
(dp898
g3
Vhttp://120.52.73.35/adultvideo.science/media/videos/iphone/2848.mp4
p899
sg5
S'http://www.websc.cc/h/40.php'
p900
ssI299
(dp901
g3
Vhttp://120.52.73.35/adultvideo.science/media/videos/iphone/2849.mp4
p902
sg5
S'http://www.websc.cc/h/41.php'
p903
ssI300
(dp904
g3
Vhttp://120.52.73.35/adultvideo.science/media/videos/iphone/2850.mp4
p905
sg5
S'http://www.websc.cc/h/42.php'
p906
ssI301
(dp907
g3
Vhttp://120.52.73.35/adultvideo.science/media/videos/iphone/2851.mp4
p908
sg5
S'http://www.websc.cc/h/43.php'
p909
ssI302
(dp910
g3
Vhttp://120.52.73.35/adultvideo.science/media/videos/iphone/2852.mp4
p911
sg5
S'http://www.websc.cc/h/44.php'
p912
ssI303
(dp913
g3
Vhttp://120.52.73.35/adultvideo.science/media/videos/iphone/2853.mp4
p914
sg5
S'http://www.websc.cc/h/45.php'
p915
ssI304
(dp916
g3
Vhttp://120.52.73.35/adultvideo.science/media/videos/iphone/2854.mp4
p917
sg5
S'http://www.websc.cc/h/46.php'
p918
ssI305
(dp919
g3
Vhttp://120.52.73.35/adultvideo.science/media/videos/iphone/2855.mp4
p920
sg5
S'http://www.websc.cc/h/47.php'
p921
ssI306
(dp922
g3
Vhttp://120.52.73.35/adultvideo.science/media/videos/iphone/2856.mp4
p923
sg5
S'http://www.websc.cc/h/48.php'
p924
ssI307
(dp925
g3
Vhttp://120.52.73.35/adultvideo.science/media/videos/iphone/2857.mp4
p926
sg5
S'http://www.websc.cc/h/49.php'
p927
ssI308
(dp928
g3
Vhttp://120.52.73.35/adultvideo.science/media/videos/iphone/2858.mp4
p929
sg5
S'http://www.websc.cc/h/50.php'
p930
ssI309
(dp931
g3
Vhttp://120.52.73.35/adultvideo.science/media/videos/iphone/2859.mp4
p932
sg5
S'http://www.websc.cc/h/51.php'
p933
ssI310
(dp934
g3
Vhttp://120.52.73.35/adultvideo.science/media/videos/iphone/2860.mp4
p935
sg5
S'http://www.websc.cc/h/52.php'
p936
ssI311
(dp937
g3
Vhttp://120.52.73.35/adultvideo.science/media/videos/iphone/2861.mp4
p938
sg5
S'http://www.websc.cc/h/53.php'
p939
ssI312
(dp940
g3
Vhttp://120.52.73.35/adultvideo.science/media/videos/iphone/2862.mp4
p941
sg5
S'http://www.websc.cc/h/54.php'
p942
ssI313
(dp943
g3
Vhttp://120.52.73.35/adultvideo.science/media/videos/iphone/2863.mp4
p944
sg5
S'http://www.websc.cc/h/55.php'
p945
ssI314
(dp946
g3
Vhttp://120.52.73.35/adultvideo.science/media/videos/iphone/2864.mp4
p947
sg5
S'http://www.websc.cc/h/56.php'
p948
ssI315
(dp949
g3
Vhttp://120.52.73.35/adultvideo.science/media/videos/iphone/2865.mp4
p950
sg5
S'http://www.websc.cc/h/57.php'
p951
ssI316
(dp952
g3
Vhttp://120.52.73.35/adultvideo.science/media/videos/iphone/2867.mp4
p953
sg5
S'http://www.websc.cc/h/58.php'
p954
ssI317
(dp955
g3
Vhttp://120.52.73.35/adultvideo.science/media/videos/iphone/2868.mp4
p956
sg5
S'http://www.websc.cc/h/59.php'
p957
ssI318
(dp958
g3
Vhttp://120.52.73.35/adultvideo.science/media/videos/iphone/2869.mp4
p959
sg5
S'http://www.websc.cc/h/60.php'
p960
ssI319
(dp961
g3
Vhttp://120.52.73.35/adultvideo.science/media/videos/iphone/2870.mp4
p962
sg5
S'http://www.websc.cc/h/61.php'
p963
ssI320
(dp964
g3
Vhttp://120.52.73.35/adultvideo.science/media/videos/iphone/2873.mp4
p965
sg5
S'http://www.websc.cc/h/62.php'
p966
ssI321
(dp967
g3
Vhttp://120.52.73.35/adultvideo.science/media/videos/iphone/2874.mp4
p968
sg5
S'http://www.websc.cc/h/63.php'
p969
ssI322
(dp970
g3
Vhttp://120.52.73.35/adultvideo.science/media/videos/iphone/2875.mp4
p971
sg5
S'http://www.websc.cc/h/64.php'
p972
ssI323
(dp973
g3
Vhttp://120.52.73.35/adultvideo.science/media/videos/iphone/2876.mp4
p974
sg5
S'http://www.websc.cc/h/65.php'
p975
ssI324
(dp976
g3
Vhttp://120.52.73.35/adultvideo.science/media/videos/iphone/2877.mp4
p977
sg5
S'http://www.websc.cc/h/66.php'
p978
ssI325
(dp979
g3
Vhttp://120.52.73.35/adultvideo.science/media/videos/iphone/2879.mp4
p980
sg5
S'http://www.websc.cc/h/67.php'
p981
ssI326
(dp982
g3
Vhttp://120.52.73.35/adultvideo.science/media/videos/iphone/2881.mp4
p983
sg5
S'http://www.websc.cc/h/68.php'
p984
ssI327
(dp985
g3
Vhttp://120.52.73.35/adultvideo.science/media/videos/iphone/2882.mp4
p986
sg5
S'http://www.websc.cc/h/69.php'
p987
ssI328
(dp988
g3
Vhttp://120.52.73.35/adultvideo.science/media/videos/iphone/2884.mp4
p989
sg5
S'http://www.websc.cc/h/70.php'
p990
ssI329
(dp991
g3
Vhttp://120.52.73.35/adultvideo.science/media/videos/iphone/2886.mp4
p992
sg5
S'http://www.websc.cc/h/71.php'
p993
ssI330
(dp994
g3
Vhttp://120.52.73.35/adultvideo.science/media/videos/iphone/2890.mp4
p995
sg5
S'http://www.websc.cc/h/72.php'
p996
ssI331
(dp997
g3
Vhttp://120.52.73.35/adultvideo.science/media/videos/iphone/2892.mp4
p998
sg5
S'http://www.websc.cc/h/73.php'
p999
ssI332
(dp1000
g3
Vhttp://120.52.73.35/adultvideo.science/media/videos/iphone/2893.mp4
p1001
sg5
S'http://www.websc.cc/h/74.php'
p1002
ssI333
(dp1003
g3
Vhttp://120.52.73.35/adultvideo.science/media/videos/iphone/2894.mp4
p1004
sg5
S'http://www.websc.cc/h/75.php'
p1005
ssI334
(dp1006
g3
Vhttp://120.52.73.35/adultvideo.science/media/videos/iphone/2895.mp4
p1007
sg5
S'http://www.websc.cc/h/76.php'
p1008
ssI335
(dp1009
g3
Vhttp://120.52.73.35/adultvideo.science/media/videos/iphone/2896.mp4
p1010
sg5
S'http://www.websc.cc/h/77.php'
p1011
ssI336
(dp1012
g3
Vhttp://120.52.73.35/adultvideo.science/media/videos/iphone/2899.mp4
p1013
sg5
S'http://www.websc.cc/h/78.php'
p1014
ssI337
(dp1015
g3
Vhttp://120.52.73.35/adultvideo.science/media/videos/iphone/2901.mp4
p1016
sg5
S'http://www.websc.cc/h/79.php'
p1017
ssI338
(dp1018
g3
Vhttp://120.52.73.35/adultvideo.science/media/videos/iphone/2902.mp4
p1019
sg5
S'http://www.websc.cc/h/80.php'
p1020
ssI339
(dp1021
g3
Vhttp://120.52.73.35/adultvideo.science/media/videos/iphone/2903.mp4
p1022
sg5
S'http://www.websc.cc/h/81.php'
p1023
ssI340
(dp1024
g3
Vhttp://120.52.73.35/adultvideo.science/media/videos/iphone/2904.mp4
p1025
sg5
S'http://www.websc.cc/h/82.php'
p1026
ssI341
(dp1027
g3
Vhttp://120.52.73.35/adultvideo.science/media/videos/iphone/2905.mp4
p1028
sg5
S'http://www.websc.cc/h/83.php'
p1029
ssI342
(dp1030
g3
Vhttp://120.52.73.35/adultvideo.science/media/videos/iphone/2906.mp4
p1031
sg5
S'http://www.websc.cc/h/84.php'
p1032
ssI343
(dp1033
g3
Vhttp://120.52.73.35/adultvideo.science/media/videos/iphone/2907.mp4
p1034
sg5
S'http://www.websc.cc/h/85.php'
p1035
ssI344
(dp1036
g3
Vhttp://120.52.73.35/adultvideo.science/media/videos/iphone/2908.mp4
p1037
sg5
S'http://www.websc.cc/h/86.php'
p1038
ssI345
(dp1039
g3
Vhttp://120.52.73.35/adultvideo.science/media/videos/iphone/2909.mp4
p1040
sg5
S'http://www.websc.cc/h/87.php'
p1041
ssI346
(dp1042
g3
Vhttp://120.52.73.35/adultvideo.science/media/videos/iphone/2910.mp4
p1043
sg5
S'http://www.websc.cc/h/88.php'
p1044
ssI347
(dp1045
g3
Vhttp://120.52.73.35/adultvideo.science/media/videos/iphone/2911.mp4
p1046
sg5
S'http://www.websc.cc/h/89.php'
p1047
ssI348
(dp1048
g3
Vhttp://120.52.73.35/adultvideo.science/media/videos/iphone/2912.mp4
p1049
sg5
S'http://www.websc.cc/h/90.php'
p1050
ssI349
(dp1051
g3
Vhttp://120.52.73.35/adultvideo.science/media/videos/iphone/2914.mp4
p1052
sg5
S'http://www.websc.cc/h/91.php'
p1053
ssI350
(dp1054
g3
Vhttp://120.52.73.35/adultvideo.science/media/videos/iphone/2915.mp4
p1055
sg5
S'http://www.websc.cc/h/92.php'
p1056
ssI351
(dp1057
g3
Vhttp://120.52.73.35/adultvideo.science/media/videos/iphone/2916.mp4
p1058
sg5
S'http://www.websc.cc/h/93.php'
p1059
ssI352
(dp1060
g3
Vhttp://120.52.73.35/adultvideo.science/media/videos/iphone/2917.mp4
p1061
sg5
S'http://www.websc.cc/h/94.php'
p1062
ssI353
(dp1063
g3
Vhttp://120.52.73.35/adultvideo.science/media/videos/iphone/2918.mp4
p1064
sg5
S'http://www.websc.cc/h/95.php'
p1065
ssI354
(dp1066
g3
Vhttp://120.52.73.35/adultvideo.science/media/videos/iphone/2919.mp4
p1067
sg5
S'http://www.websc.cc/h/96.php'
p1068
ssI355
(dp1069
g3
Vhttp://120.52.73.35/adultvideo.science/media/videos/iphone/2921.mp4
p1070
sg5
S'http://www.websc.cc/h/97.php'
p1071
ssI356
(dp1072
g3
Vhttp://120.52.73.35/adultvideo.science/media/videos/iphone/2922.mp4
p1073
sg5
S'http://www.websc.cc/h/98.php'
p1074
ssI357
(dp1075
g3
Vhttp://120.52.73.35/adultvideo.science/media/videos/iphone/2923.mp4
p1076
sg5
S'http://www.websc.cc/h/99.php'
p1077
ssI358
(dp1078
g3
Vhttp://120.52.73.84/adultvideo.science/media/videos/iphone/801.mp4
p1079
sg5
S'http://www.websc.cc/r/1.php'
p1080
ssI359
(dp1081
g3
Vhttp://120.52.73.84/adultvideo.science/media/videos/iphone/802.mp4
p1082
sg5
S'http://www.websc.cc/r/2.php'
p1083
ssI360
(dp1084
g3
Vhttp://120.52.73.84/adultvideo.science/media/videos/iphone/803.mp4
p1085
sg5
S'http://www.websc.cc/r/3.php'
p1086
ssI361
(dp1087
g3
Vhttp://120.52.73.84/adultvideo.science/media/videos/iphone/804.mp4
p1088
sg5
S'http://www.websc.cc/r/4.php'
p1089
ssI362
(dp1090
g3
Vhttp://120.52.73.84/adultvideo.science/media/videos/iphone/805.mp4
p1091
sg5
S'http://www.websc.cc/r/5.php'
p1092
ssI363
(dp1093
g3
Vhttp://120.52.73.84/adultvideo.science/media/videos/iphone/806.mp4
p1094
sg5
S'http://www.websc.cc/r/6.php'
p1095
ssI364
(dp1096
g3
Vhttp://120.52.73.84/adultvideo.science/media/videos/iphone/807.mp4
p1097
sg5
S'http://www.websc.cc/r/7.php'
p1098
ssI365
(dp1099
g3
Vhttp://120.52.73.84/adultvideo.science/media/videos/iphone/808.mp4
p1100
sg5
S'http://www.websc.cc/r/8.php'
p1101
ssI366
(dp1102
g3
Vhttp://120.52.73.84/adultvideo.science/media/videos/iphone/809.mp4
p1103
sg5
S'http://www.websc.cc/r/9.php'
p1104
ssI367
(dp1105
g3
Vhttp://120.52.73.84/adultvideo.science/media/videos/iphone/810.mp4
p1106
sg5
S'http://www.websc.cc/r/10.php'
p1107
ssI368
(dp1108
g3
Vhttp://120.52.73.84/adultvideo.science/media/videos/iphone/811.mp4
p1109
sg5
S'http://www.websc.cc/r/11.php'
p1110
ssI369
(dp1111
g3
Vhttp://120.52.73.84/adultvideo.science/media/videos/iphone/812.mp4
p1112
sg5
S'http://www.websc.cc/r/12.php'
p1113
ssI370
(dp1114
g3
Vhttp://120.52.73.84/adultvideo.science/media/videos/iphone/813.mp4
p1115
sg5
S'http://www.websc.cc/r/13.php'
p1116
ssI371
(dp1117
g3
Vhttp://120.52.73.84/adultvideo.science/media/videos/iphone/814.mp4
p1118
sg5
S'http://www.websc.cc/r/14.php'
p1119
ssI372
(dp1120
g3
Vhttp://120.52.73.84/adultvideo.science/media/videos/iphone/815.mp4
p1121
sg5
S'http://www.websc.cc/r/15.php'
p1122
ssI373
(dp1123
g3
Vhttp://120.52.73.84/adultvideo.science/media/videos/iphone/816.mp4
p1124
sg5
S'http://www.websc.cc/r/16.php'
p1125
ssI374
(dp1126
g3
Vhttp://120.52.73.84/adultvideo.science/media/videos/iphone/817.mp4
p1127
sg5
S'http://www.websc.cc/r/17.php'
p1128
ssI375
(dp1129
g3
Vhttp://120.52.73.84/adultvideo.science/media/videos/iphone/818.mp4
p1130
sg5
S'http://www.websc.cc/r/18.php'
p1131
ssI376
(dp1132
g3
Vhttp://120.52.73.84/adultvideo.science/media/videos/iphone/819.mp4
p1133
sg5
S'http://www.websc.cc/r/19.php'
p1134
ssI377
(dp1135
g3
Vhttp://120.52.73.84/adultvideo.science/media/videos/iphone/820.mp4
p1136
sg5
S'http://www.websc.cc/r/20.php'
p1137
ssI378
(dp1138
g3
Vhttp://120.52.73.84/adultvideo.science/media/videos/iphone/821.mp4
p1139
sg5
S'http://www.websc.cc/r/21.php'
p1140
ssI379
(dp1141
g3
Vhttp://120.52.73.84/adultvideo.science/media/videos/iphone/822.mp4
p1142
sg5
S'http://www.websc.cc/r/22.php'
p1143
ssI380
(dp1144
g3
Vhttp://120.52.73.84/adultvideo.science/media/videos/iphone/823.mp4
p1145
sg5
S'http://www.websc.cc/r/23.php'
p1146
ssI381
(dp1147
g3
Vhttp://120.52.73.84/adultvideo.science/media/videos/iphone/824.mp4
p1148
sg5
S'http://www.websc.cc/r/24.php'
p1149
ssI382
(dp1150
g3
Vhttp://120.52.73.84/adultvideo.science/media/videos/iphone/825.mp4
p1151
sg5
S'http://www.websc.cc/r/25.php'
p1152
ssI383
(dp1153
g3
Vhttp://120.52.73.84/adultvideo.science/media/videos/iphone/826.mp4
p1154
sg5
S'http://www.websc.cc/r/26.php'
p1155
ssI384
(dp1156
g3
Vhttp://120.52.73.84/adultvideo.science/media/videos/iphone/827.mp4
p1157
sg5
S'http://www.websc.cc/r/27.php'
p1158
ssI385
(dp1159
g3
Vhttp://120.52.73.84/adultvideo.science/media/videos/iphone/828.mp4
p1160
sg5
S'http://www.websc.cc/r/28.php'
p1161
ssI386
(dp1162
g3
Vhttp://120.52.73.84/adultvideo.science/media/videos/iphone/829.mp4
p1163
sg5
S'http://www.websc.cc/r/29.php'
p1164
ssI387
(dp1165
g3
Vhttp://120.52.73.84/adultvideo.science/media/videos/iphone/830.mp4
p1166
sg5
S'http://www.websc.cc/r/30.php'
p1167
ssI388
(dp1168
g3
Vhttp://120.52.73.84/adultvideo.science/media/videos/iphone/831.mp4
p1169
sg5
S'http://www.websc.cc/r/31.php'
p1170
ssI389
(dp1171
g3
Vhttp://120.52.73.84/adultvideo.science/media/videos/iphone/832.mp4
p1172
sg5
S'http://www.websc.cc/r/32.php'
p1173
ssI390
(dp1174
g3
Vhttp://120.52.73.84/adultvideo.science/media/videos/iphone/833.mp4
p1175
sg5
S'http://www.websc.cc/r/33.php'
p1176
ssI391
(dp1177
g3
Vhttp://120.52.73.84/adultvideo.science/media/videos/iphone/834.mp4
p1178
sg5
S'http://www.websc.cc/r/34.php'
p1179
ssI392
(dp1180
g3
Vhttp://120.52.73.84/adultvideo.science/media/videos/iphone/835.mp4
p1181
sg5
S'http://www.websc.cc/r/35.php'
p1182
ssI393
(dp1183
g3
Vhttp://120.52.73.84/adultvideo.science/media/videos/iphone/836.mp4
p1184
sg5
S'http://www.websc.cc/r/36.php'
p1185
ssI394
(dp1186
g3
Vhttp://120.52.73.84/adultvideo.science/media/videos/iphone/837.mp4
p1187
sg5
S'http://www.websc.cc/r/37.php'
p1188
ssI395
(dp1189
g3
Vhttp://120.52.73.84/adultvideo.science/media/videos/iphone/838.mp4
p1190
sg5
S'http://www.websc.cc/r/38.php'
p1191
ssI396
(dp1192
g3
Vhttp://120.52.73.84/adultvideo.science/media/videos/iphone/839.mp4
p1193
sg5
S'http://www.websc.cc/r/39.php'
p1194
ssI397
(dp1195
g3
Vhttp://120.52.73.84/adultvideo.science/media/videos/iphone/840.mp4
p1196
sg5
S'http://www.websc.cc/r/40.php'
p1197
ssI398
(dp1198
g3
Vhttp://120.52.73.84/adultvideo.science/media/videos/iphone/841.mp4
p1199
sg5
S'http://www.websc.cc/r/41.php'
p1200
ssI399
(dp1201
g3
Vhttp://120.52.73.84/adultvideo.science/media/videos/iphone/842.mp4
p1202
sg5
S'http://www.websc.cc/r/42.php'
p1203
ssI400
(dp1204
g3
Vhttp://120.52.73.84/adultvideo.science/media/videos/iphone/843.mp4
p1205
sg5
S'http://www.websc.cc/r/43.php'
p1206
ssI401
(dp1207
g3
Vhttp://120.52.73.84/adultvideo.science/media/videos/iphone/844.mp4
p1208
sg5
S'http://www.websc.cc/r/44.php'
p1209
ssI402
(dp1210
g3
Vhttp://120.52.73.84/adultvideo.science/media/videos/iphone/845.mp4
p1211
sg5
S'http://www.websc.cc/r/45.php'
p1212
ssI403
(dp1213
g3
Vhttp://120.52.73.84/adultvideo.science/media/videos/iphone/846.mp4
p1214
sg5
S'http://www.websc.cc/r/46.php'
p1215
ssI404
(dp1216
g3
Vhttp://120.52.73.84/adultvideo.science/media/videos/iphone/847.mp4
p1217
sg5
S'http://www.websc.cc/r/47.php'
p1218
ssI405
(dp1219
g3
Vhttp://120.52.73.84/adultvideo.science/media/videos/iphone/848.mp4
p1220
sg5
S'http://www.websc.cc/r/48.php'
p1221
ssI406
(dp1222
g3
Vhttp://120.52.73.84/adultvideo.science/media/videos/iphone/849.mp4
p1223
sg5
S'http://www.websc.cc/r/49.php'
p1224
ssI407
(dp1225
g3
Vhttp://120.52.73.84/adultvideo.science/media/videos/iphone/850.mp4
p1226
sg5
S'http://www.websc.cc/r/50.php'
p1227
ssI408
(dp1228
g3
Vhttp://120.52.73.84/adultvideo.science/media/videos/iphone/851.mp4
p1229
sg5
S'http://www.websc.cc/r/51.php'
p1230
ssI409
(dp1231
g3
Vhttp://120.52.73.84/adultvideo.science/media/videos/iphone/852.mp4
p1232
sg5
S'http://www.websc.cc/r/52.php'
p1233
ssI410
(dp1234
g3
Vhttp://120.52.73.84/adultvideo.science/media/videos/iphone/853.mp4
p1235
sg5
S'http://www.websc.cc/r/53.php'
p1236
ssI411
(dp1237
g3
Vhttp://120.52.73.84/adultvideo.science/media/videos/iphone/854.mp4
p1238
sg5
S'http://www.websc.cc/r/54.php'
p1239
ssI412
(dp1240
g3
Vhttp://120.52.73.84/adultvideo.science/media/videos/iphone/855.mp4
p1241
sg5
S'http://www.websc.cc/r/55.php'
p1242
ssI413
(dp1243
g3
Vhttp://120.52.73.84/adultvideo.science/media/videos/iphone/856.mp4
p1244
sg5
S'http://www.websc.cc/r/56.php'
p1245
ssI414
(dp1246
g3
Vhttp://120.52.73.84/adultvideo.science/media/videos/iphone/857.mp4
p1247
sg5
S'http://www.websc.cc/r/57.php'
p1248
ssI415
(dp1249
g3
Vhttp://120.52.73.84/adultvideo.science/media/videos/iphone/858.mp4
p1250
sg5
S'http://www.websc.cc/r/58.php'
p1251
ssI416
(dp1252
g3
Vhttp://120.52.73.84/adultvideo.science/media/videos/iphone/859.mp4
p1253
sg5
S'http://www.websc.cc/r/59.php'
p1254
ssI417
(dp1255
g3
Vhttp://120.52.73.84/adultvideo.science/media/videos/iphone/860.mp4
p1256
sg5
S'http://www.websc.cc/r/60.php'
p1257
ssI418
(dp1258
g3
Vhttp://120.52.73.84/adultvideo.science/media/videos/iphone/861.mp4
p1259
sg5
S'http://www.websc.cc/r/61.php'
p1260
ssI419
(dp1261
g3
Vhttp://120.52.73.84/adultvideo.science/media/videos/iphone/862.mp4
p1262
sg5
S'http://www.websc.cc/r/62.php'
p1263
ssI420
(dp1264
g3
Vhttp://120.52.73.84/adultvideo.science/media/videos/iphone/863.mp4
p1265
sg5
S'http://www.websc.cc/r/63.php'
p1266
ssI421
(dp1267
g3
Vhttp://120.52.73.84/adultvideo.science/media/videos/iphone/864.mp4
p1268
sg5
S'http://www.websc.cc/r/64.php'
p1269
ssI422
(dp1270
g3
Vhttp://120.52.73.84/adultvideo.science/media/videos/iphone/865.mp4
p1271
sg5
S'http://www.websc.cc/r/65.php'
p1272
ssI423
(dp1273
g3
Vhttp://120.52.73.84/adultvideo.science/media/videos/iphone/866.mp4
p1274
sg5
S'http://www.websc.cc/r/66.php'
p1275
ssI424
(dp1276
g3
Vhttp://120.52.73.84/adultvideo.science/media/videos/iphone/867.mp4
p1277
sg5
S'http://www.websc.cc/r/67.php'
p1278
ssI425
(dp1279
g3
Vhttp://120.52.73.84/adultvideo.science/media/videos/iphone/868.mp4
p1280
sg5
S'http://www.websc.cc/r/68.php'
p1281
ssI426
(dp1282
g3
Vhttp://120.52.73.84/adultvideo.science/media/videos/iphone/869.mp4
p1283
sg5
S'http://www.websc.cc/r/69.php'
p1284
ssI427
(dp1285
g3
Vhttp://120.52.73.84/adultvideo.science/media/videos/iphone/870.mp4
p1286
sg5
S'http://www.websc.cc/r/70.php'
p1287
ssI428
(dp1288
g3
Vhttp://120.52.73.84/adultvideo.science/media/videos/iphone/871.mp4
p1289
sg5
S'http://www.websc.cc/r/71.php'
p1290
ssI429
(dp1291
g3
Vhttp://120.52.73.84/adultvideo.science/media/videos/iphone/872.mp4
p1292
sg5
S'http://www.websc.cc/r/72.php'
p1293
ssI430
(dp1294
g3
Vhttp://120.52.73.84/adultvideo.science/media/videos/iphone/873.mp4
p1295
sg5
S'http://www.websc.cc/r/73.php'
p1296
ssI431
(dp1297
g3
Vhttp://120.52.73.84/adultvideo.science/media/videos/iphone/874.mp4
p1298
sg5
S'http://www.websc.cc/r/74.php'
p1299
ssI432
(dp1300
g3
Vhttp://120.52.73.84/adultvideo.science/media/videos/iphone/875.mp4
p1301
sg5
S'http://www.websc.cc/r/75.php'
p1302
ssI433
(dp1303
g3
Vhttp://120.52.73.84/adultvideo.science/media/videos/iphone/876.mp4
p1304
sg5
S'http://www.websc.cc/r/76.php'
p1305
ssI434
(dp1306
g3
Vhttp://120.52.73.84/adultvideo.science/media/videos/iphone/877.mp4
p1307
sg5
S'http://www.websc.cc/r/77.php'
p1308
ssI435
(dp1309
g3
Vhttp://120.52.73.84/adultvideo.science/media/videos/iphone/878.mp4
p1310
sg5
S'http://www.websc.cc/r/78.php'
p1311
ssI436
(dp1312
g3
Vhttp://120.52.73.84/adultvideo.science/media/videos/iphone/879.mp4
p1313
sg5
S'http://www.websc.cc/r/79.php'
p1314
ssI437
(dp1315
g3
Vhttp://120.52.73.84/adultvideo.science/media/videos/iphone/880.mp4
p1316
sg5
S'http://www.websc.cc/r/80.php'
p1317
ssI438
(dp1318
g3
Vhttp://120.52.73.84/adultvideo.science/media/videos/iphone/881.mp4
p1319
sg5
S'http://www.websc.cc/r/81.php'
p1320
ssI439
(dp1321
g3
Vhttp://120.52.73.84/adultvideo.science/media/videos/iphone/882.mp4
p1322
sg5
S'http://www.websc.cc/r/82.php'
p1323
ssI440
(dp1324
g3
Vhttp://120.52.73.84/adultvideo.science/media/videos/iphone/883.mp4
p1325
sg5
S'http://www.websc.cc/r/83.php'
p1326
ssI441
(dp1327
g3
Vhttp://120.52.73.84/adultvideo.science/media/videos/iphone/884.mp4
p1328
sg5
S'http://www.websc.cc/r/84.php'
p1329
ssI442
(dp1330
g3
Vhttp://120.52.73.84/adultvideo.science/media/videos/iphone/885.mp4
p1331
sg5
S'http://www.websc.cc/r/85.php'
p1332
ssI443
(dp1333
g3
Vhttp://120.52.73.84/adultvideo.science/media/videos/iphone/886.mp4
p1334
sg5
S'http://www.websc.cc/r/86.php'
p1335
ssI444
(dp1336
g3
Vhttp://120.52.73.84/adultvideo.science/media/videos/iphone/887.mp4
p1337
sg5
S'http://www.websc.cc/r/87.php'
p1338
ssI445
(dp1339
g3
Vhttp://120.52.73.84/adultvideo.science/media/videos/iphone/888.mp4
p1340
sg5
S'http://www.websc.cc/r/88.php'
p1341
ssI446
(dp1342
g3
Vhttp://120.52.73.84/adultvideo.science/media/videos/iphone/889.mp4
p1343
sg5
S'http://www.websc.cc/r/89.php'
p1344
ssI447
(dp1345
g3
Vhttp://120.52.73.84/adultvideo.science/media/videos/iphone/890.mp4
p1346
sg5
S'http://www.websc.cc/r/90.php'
p1347
ssI448
(dp1348
g3
Vhttp://120.52.73.84/adultvideo.science/media/videos/iphone/891.mp4
p1349
sg5
S'http://www.websc.cc/r/91.php'
p1350
ssI449
(dp1351
g3
Vhttp://120.52.73.84/adultvideo.science/media/videos/iphone/892.mp4
p1352
sg5
S'http://www.websc.cc/r/92.php'
p1353
ssI450
(dp1354
g3
Vhttp://120.52.73.84/adultvideo.science/media/videos/iphone/893.mp4
p1355
sg5
S'http://www.websc.cc/r/93.php'
p1356
ssI451
(dp1357
g3
Vhttp://120.52.73.84/adultvideo.science/media/videos/iphone/894.mp4
p1358
sg5
S'http://www.websc.cc/r/94.php'
p1359
ssI452
(dp1360
g3
Vhttp://120.52.73.84/adultvideo.science/media/videos/iphone/895.mp4
p1361
sg5
S'http://www.websc.cc/r/95.php'
p1362
ssI453
(dp1363
g3
Vhttp://120.52.73.84/adultvideo.science/media/videos/iphone/896.mp4
p1364
sg5
S'http://www.websc.cc/r/96.php'
p1365
ssI454
(dp1366
g3
Vhttp://120.52.73.84/adultvideo.science/media/videos/iphone/897.mp4
p1367
sg5
S'http://www.websc.cc/r/97.php'
p1368
ssI455
(dp1369
g3
Vhttp://120.52.73.84/adultvideo.science/media/videos/iphone/898.mp4
p1370
sg5
S'http://www.websc.cc/r/98.php'
p1371
ssI456
(dp1372
g3
Vhttp://120.52.73.84/adultvideo.science/media/videos/iphone/899.mp4
p1373
sg5
S'http://www.websc.cc/r/99.php'
p1374
ssI457
(dp1375
g3
Vhttp://120.52.73.7/198.56.193.154/media/videos/mp4/601043133.mp4
p1376
sg5
S'http://www.websc.cc/s/1.php'
p1377
ssI458
(dp1378
g3
Vhttp://120.52.73.4/198.56.193.154/media/videos/mp4/601043257.mp4
p1379
sg5
S'http://www.websc.cc/s/2.php'
p1380
ssI459
(dp1381
g3
Vhttp://198.56.193.154/media/videos/mp4/601043316.mp4
p1382
sg5
S'http://www.websc.cc/s/3.php'
p1383
ssI460
(dp1384
g3
Vhttp://120.52.73.6/198.56.193.154/media/videos/mp4/601043336.mp4
p1385
sg5
S'http://www.websc.cc/s/4.php'
p1386
ssI461
(dp1387
g3
Vhttp://120.52.73.7/198.56.193.154/media/videos/mp4/601043324.mp4
p1388
sg5
S'http://www.websc.cc/s/5.php'
p1389
ssI462
(dp1390
g3
Vhttp://120.52.73.8/198.56.193.154/media/videos/mp4/601043448.mp4
p1391
sg5
S'http://www.websc.cc/s/6.php'
p1392
ssI463
(dp1393
g3
Vhttp://120.52.73.5/198.56.193.154/media/videos/mp4/601043546.mp4
p1394
sg5
S'http://www.websc.cc/s/7.php'
p1395
ssI464
(dp1396
g3
Vhttp://120.52.73.6/198.56.193.154/media/videos/mp4/601042803.mp4
p1397
sg5
S'http://www.websc.cc/s/8.php'
p1398
ssI465
(dp1399
g3
Vhttp://198.56.193.154/media/videos/mp4/601042718.mp4
p1400
sg5
S'http://www.websc.cc/s/9.php'
p1401
ssI466
(dp1402
g3
Vhttp://120.52.73.7/198.56.193.154/media/videos/mp4/601042758.mp4
p1403
sg5
S'http://www.websc.cc/s/10.php'
p1404
ssI467
(dp1405
g3
Vhttp://198.56.193.154/media/videos/mp4/601042659.mp4
p1406
sg5
S'http://www.websc.cc/s/11.php'
p1407
ssI468
(dp1408
g3
Vhttp://198.56.193.154/media/videos/mp4/601042827.mp4
p1409
sg5
S'http://www.websc.cc/s/12.php'
p1410
ssI469
(dp1411
g3
Vhttp://120.52.73.6/198.56.193.154/media/videos/mp4/601043153.mp4
p1412
sg5
S'http://www.websc.cc/s/13.php'
p1413
ssI470
(dp1414
g3
Vhttp://120.52.73.4/198.56.193.154/media/videos/mp4/601043037.mp4
p1415
sg5
S'http://www.websc.cc/s/14.php'
p1416
ssI471
(dp1417
g3
Vhttp://120.52.73.5/198.56.193.154/media/videos/mp4/601043221.mp4
p1418
sg5
S'http://www.websc.cc/s/15.php'
p1419
ssI472
(dp1420
g3
Vhttp://120.52.73.6/198.56.193.154/media/videos/mp4/601043207.mp4
p1421
sg5
S'http://www.websc.cc/s/16.php'
p1422
ssI473
(dp1423
g3
Vhttp://120.52.73.66/data1.cache.directory/media/videos/iphone/3955.mp4
p1424
sg5
S'http://www.websc.cc/s/17.php'
p1425
ssI474
(dp1426
g3
Vhttp://120.52.73.67/data3.cache.directory/media/videos/iphone/4186.mp4
p1427
sg5
S'http://www.websc.cc/s/18.php'
p1428
ssI475
(dp1429
g3
Vhttp://120.52.73.69/data1.cache.directory/media/videos/iphone/1214.mp4
p1430
sg5
S'http://www.websc.cc/s/19.php'
p1431
ssI476
(dp1432
g3
Vhttp://120.52.73.70/data1.cache.directory/media/videos/iphone/3513.mp4
p1433
sg5
S'http://www.websc.cc/s/20.php'
p1434
ssI477
(dp1435
g3
Vhttp://120.52.73.60/data1.cache.directory/media/videos/iphone/4280.mp4
p1436
sg5
S'http://www.websc.cc/s/21.php'
p1437
ssI478
(dp1438
g3
Vhttp://120.52.73.70/data1.cache.directory/media/videos/iphone/4223.mp4
p1439
sg5
S'http://www.websc.cc/s/22.php'
p1440
ssI479
(dp1441
g3
Vhttp://120.52.73.60/data1.cache.directory/media/videos/iphone/4251.mp4
p1442
sg5
S'http://www.websc.cc/s/23.php'
p1443
ssI480
(dp1444
g3
Vhttp://120.52.73.68/data3.cache.directory/media/videos/iphone/4289.mp4
p1445
sg5
S'http://www.websc.cc/s/24.php'
p1446
ssI481
(dp1447
g3
Vhttp://120.52.73.63/data1.cache.directory/media/videos/iphone/4257.mp4
p1448
sg5
S'http://www.websc.cc/s/25.php'
p1449
ssI482
(dp1450
g3
Vhttp://120.52.73.64/data1.cache.directory/media/videos/iphone/4279.mp4
p1451
sg5
S'http://www.websc.cc/s/26.php'
p1452
ssI483
(dp1453
g3
Vhttp://120.52.73.69/data3.cache.directory/media/videos/iphone/3931.mp4
p1454
sg5
S'http://www.websc.cc/s/27.php'
p1455
ssI484
(dp1456
g3
Vhttp://120.52.73.67/data3.cache.directory/media/videos/iphone/3879.mp4
p1457
sg5
S'http://www.websc.cc/s/28.php'
p1458
ssI485
(dp1459
g3
Vhttp://120.52.73.61/data3.cache.directory/media/videos/iphone/3876.mp4
p1460
sg5
S'http://www.websc.cc/s/29.php'
p1461
ssI486
(dp1462
g3
Vhttp://120.52.73.68/data3.cache.directory/media/videos/iphone/3878.mp4
p1463
sg5
S'http://www.websc.cc/s/30.php'
p1464
ssI487
(dp1465
g3
Vhttp://120.52.73.68/data1.cache.directory/media/videos/iphone/4295.mp4
p1466
sg5
S'http://www.websc.cc/s/31.php'
p1467
ssI488
(dp1468
g3
Vhttp://bsyqncdn.miaopai.com/stream/z4cw3WijpaA6VQNsBnURAw__.mp4
p1469
sg5
S'http://www.websc.cc/s/32.php'
p1470
ssI489
(dp1471
g3
Vhttp://bsyqncdn.miaopai.com/stream/tLMnq~7OVT51PQ06eZUdBA__.mp4
p1472
sg5
S'http://www.websc.cc/s/33.php'
p1473
ssI490
(dp1474
g3
Vhttp://bsyqncdn.miaopai.com/stream/xZA8Dg6vIYr5KgnnuNWtnA__.mp4
p1475
sg5
S'http://www.websc.cc/s/34.php'
p1476
ssI491
(dp1477
g3
Vhttp://120.52.73.63/data1.cache.directory/media/videos/iphone/4200.mp4
p1478
sg5
S'http://www.websc.cc/s/35.php'
p1479
ssI492
(dp1480
g3
Vhttp://120.52.73.63/data1.cache.directory/media/videos/iphone/4256.mp4
p1481
sg5
S'http://www.websc.cc/s/36.php'
p1482
ssI493
(dp1483
g3
Vhttp://120.52.73.63/data1.cache.directory/media/videos/iphone/4254.mp4
p1484
sg5
S'http://www.websc.cc/s/37.php'
p1485
ssI494
(dp1486
g3
Vhttp://120.52.73.63/data1.cache.directory/media/videos/iphone/4253.mp4
p1487
sg5
S'http://www.websc.cc/s/38.php'
p1488
ssI495
(dp1489
g3
Vhttp://120.52.73.63/data1.cache.directory/media/videos/iphone/4252.mp4
p1490
sg5
S'http://www.websc.cc/s/39.php'
p1491
ssI496
(dp1492
g3
Vhttp://120.52.73.63/data1.cache.directory/media/videos/iphone/4240.mp4
p1493
sg5
S'http://www.websc.cc/s/40.php'
p1494
ssI497
(dp1495
g3
Vhttp://120.52.73.63/data1.cache.directory/media/videos/iphone/4239.mp4
p1496
sg5
S'http://www.websc.cc/s/41.php'
p1497
ssI498
(dp1498
g3
Vhttp://120.52.73.63/data1.cache.directory/media/videos/iphone/4237.mp4
p1499
sg5
S'http://www.websc.cc/s/42.php'
p1500
ssI499
(dp1501
g3
Vhttp://120.52.73.63/data1.cache.directory/media/videos/iphone/4235.mp4
p1502
sg5
S'http://www.websc.cc/s/43.php'
p1503
ssI500
(dp1504
g3
Vhttp://120.52.73.63/data1.cache.directory/media/videos/iphone/4233.mp4
p1505
sg5
S'http://www.websc.cc/s/44.php'
p1506
ssI501
(dp1507
g3
Vhttp://120.52.73.63/data1.cache.directory/media/videos/iphone/4230.mp4
p1508
sg5
S'http://www.websc.cc/s/45.php'
p1509
ssI502
(dp1510
g3
Vhttp://dlqncdn.miaopai.com/stream/L81a7glx-Kiylh-R~MJyHQ__.mp4
p1511
sg5
S'http://www.websc.cc/s/46.php'
p1512
ssI503
(dp1513
g3
Vhttp://dlqncdn.miaopai.com/stream/2zt0KrMpltAqffPgzJ-b9A__.mp4
p1514
sg5
S'http://www.websc.cc/s/47.php'
p1515
ssI504
(dp1516
g3
Vhttp://bsyqncdn.miaopai.com/stream/WlZH9dvohGCHSIRBRLC8Rg__.mp4
p1517
sg5
S'http://www.websc.cc/s/48.php'
p1518
ssI505
(dp1519
g3
Vhttp://wsqncdn.miaopai.com/stream/Om70qfD3nmL2ALKii~J0Hw__.mp4
p1520
sg5
S'http://www.websc.cc/s/49.php'
p1521
ssI506
(dp1522
g3
Vhttp://dlqncdn.miaopai.com/stream/mYmp~XnX4F7XyxcBXqo8FQ__.mp4
p1523
sg5
S'http://www.websc.cc/s/50.php'
p1524
ssI507
(dp1525
g3
Vhttp://lxqncdn.miaopai.com/stream/riM8xqfrx7IasKO4c575dg__.mp4
p1526
sg5
S'http://www.websc.cc/s/51.php'
p1527
ssI508
(dp1528
g3
Vhttp://qncdn.miaopai.com/stream/bRml4f8GnFN~59IMLOY4VQ__.mp4
p1529
sg5
S'http://www.websc.cc/s/52.php'
p1530
ssI509
(dp1531
g3
Vhttp://dlqncdn.miaopai.com/stream/USesud1ARfXAsg-ag1VfCA__.mp4
p1532
sg5
S'http://www.websc.cc/s/53.php'
p1533
ssI510
(dp1534
g3
Vhttp://wsqncdn.miaopai.com/stream/KHAjuOzcEg6WeNGUIn5fkw__.mp4
p1535
sg5
S'http://www.websc.cc/s/54.php'
p1536
ssI511
(dp1537
g3
Vhttp://wsqncdn.miaopai.com/stream/kFA~gJCGBEPYUuxhN2q5WQ__.mp4
p1538
sg5
S'http://www.websc.cc/s/55.php'
p1539
ssI512
(dp1540
g3
Vhttp://lxqncdn.miaopai.com/stream/m75N8zEGG6-1j4mRSPwLKg__.mp4
p1541
sg5
S'http://www.websc.cc/s/56.php'
p1542
ssI513
(dp1543
g3
Vhttp://qncdn.miaopai.com/stream/qptI9e8Hbuv591qEyeOQIQ__.mp4
p1544
sg5
S'http://www.websc.cc/s/57.php'
p1545
ssI514
(dp1546
g3
Vhttp://lxqncdn.miaopai.com/stream/S6WWSF4YE9qT0s36pPretQ__.mp4
p1547
sg5
S'http://www.websc.cc/s/58.php'
p1548
ssI515
(dp1549
g3
Vhttp://bsyqncdn.miaopai.com/stream/lWK3m~Mb15FYVtuwtSe1SQ__.mp4
p1550
sg5
S'http://www.websc.cc/s/59.php'
p1551
ssI516
(dp1552
g3
Vhttp://bsyqncdn.miaopai.com/stream/mPX~kIAL21F3dQrtq1kZ4g__.mp4
p1553
sg5
S'http://www.websc.cc/s/60.php'
p1554
ssI517
(dp1555
g3
Vhttp://bsyqncdn.miaopai.com/stream/i2ZvYyfEzKXm6ADb0nbcZw__.mp4
p1556
sg5
S'http://www.websc.cc/s/61.php'
p1557
ssI518
(dp1558
g3
Vhttp://lxqncdn.miaopai.com/stream/xCE20gVCKuyAS-ndLpnoFg__.mp4
p1559
sg5
S'http://www.websc.cc/s/62.php'
p1560
ssI519
(dp1561
g3
Vhttp://wsqncdn.miaopai.com/stream/8HKSxCdK6kGr9X9-rkXXfg__.mp4
p1562
sg5
S'http://www.websc.cc/s/63.php'
p1563
ssI520
(dp1564
g3
Vhttp://lxqncdn.miaopai.com/stream/Z-~Gp65EUkTY393AljGiOg__.mp4
p1565
sg5
S'http://www.websc.cc/s/64.php'
p1566
ssI521
(dp1567
g3
Vhttp://bsyqncdn.miaopai.com/stream/apYSHfdPCBNc73X0MiJAIQ__.mp4
p1568
sg5
S'http://www.websc.cc/s/65.php'
p1569
ssI522
(dp1570
g3
Vhttp://dlqncdn.miaopai.com/stream/Mout8bIecsb2F7A4AfjNGA__.mp4
p1571
sg5
S'http://www.websc.cc/s/66.php'
p1572
ssI523
(dp1573
g3
Vhttp://lxqncdn.miaopai.com/stream/hZ~BHHIm4Ab2YlqJbQwS-A__.mp4
p1574
sg5
S'http://www.websc.cc/s/67.php'
p1575
ssI524
(dp1576
g3
Vhttp://wsqncdn.miaopai.com/stream/dXza4euRCjhom7qKfPEgjg__.mp4
p1577
sg5
S'http://www.websc.cc/s/68.php'
p1578
ssI525
(dp1579
g3
Vhttp://dlqncdn.miaopai.com/stream/FFpCV~5GFzEImfi9-TbCFA__.mp4
p1580
sg5
S'http://www.websc.cc/s/69.php'
p1581
ssI526
(dp1582
g3
Vhttp://dlqncdn.miaopai.com/stream/i6w7J5M7UgvZq9nvklz-MA__.mp4
p1583
sg5
S'http://www.websc.cc/s/70.php'
p1584
ssI527
(dp1585
g3
Vhttp://lxqncdn.miaopai.com/stream/o5XE3fLFNGc6jjuM3gHw1w__.mp4
p1586
sg5
S'http://www.websc.cc/s/71.php'
p1587
ssI528
(dp1588
g3
Vhttp://dlqncdn.miaopai.com/stream/uwsfTmZ1ftSF2YLd4CQCcw__.mp4
p1589
sg5
S'http://www.websc.cc/s/72.php'
p1590
ssI529
(dp1591
g3
Vhttp://bsyqncdn.miaopai.com/stream/ROI3QvaITLpWKkVKGhX9Dg__.mp4
p1592
sg5
S'http://www.websc.cc/s/73.php'
p1593
ssI530
(dp1594
g3
Vhttp://120.52.73.84/adultvideo.science/media/videos/iphone/801.mp4
p1595
sg5
S'http://www.websc.cc/u/1.php'
p1596
ssI531
(dp1597
g3
Vhttp://120.52.73.84/adultvideo.science/media/videos/iphone/802.mp4
p1598
sg5
S'http://www.websc.cc/u/2.php'
p1599
ssI532
(dp1600
g3
Vhttp://120.52.73.84/adultvideo.science/media/videos/iphone/803.mp4
p1601
sg5
S'http://www.websc.cc/u/3.php'
p1602
ssI533
(dp1603
g3
Vhttp://120.52.73.84/adultvideo.science/media/videos/iphone/804.mp4
p1604
sg5
S'http://www.websc.cc/u/4.php'
p1605
ssI534
(dp1606
g3
Vhttp://120.52.73.84/adultvideo.science/media/videos/iphone/805.mp4
p1607
sg5
S'http://www.websc.cc/u/5.php'
p1608
ssI535
(dp1609
g3
Vhttp://120.52.73.84/adultvideo.science/media/videos/iphone/806.mp4
p1610
sg5
S'http://www.websc.cc/u/6.php'
p1611
ssI536
(dp1612
g3
Vhttp://120.52.73.84/adultvideo.science/media/videos/iphone/807.mp4
p1613
sg5
S'http://www.websc.cc/u/7.php'
p1614
ssI537
(dp1615
g3
Vhttp://120.52.73.84/adultvideo.science/media/videos/iphone/808.mp4
p1616
sg5
S'http://www.websc.cc/u/8.php'
p1617
ssI538
(dp1618
g3
Vhttp://120.52.73.84/adultvideo.science/media/videos/iphone/809.mp4
p1619
sg5
S'http://www.websc.cc/u/9.php'
p1620
ssI539
(dp1621
g3
Vhttp://120.52.73.84/adultvideo.science/media/videos/iphone/810.mp4
p1622
sg5
S'http://www.websc.cc/u/10.php'
p1623
ssI540
(dp1624
g3
Vhttp://120.52.73.84/adultvideo.science/media/videos/iphone/811.mp4
p1625
sg5
S'http://www.websc.cc/u/11.php'
p1626
ssI541
(dp1627
g3
Vhttp://120.52.73.84/adultvideo.science/media/videos/iphone/812.mp4
p1628
sg5
S'http://www.websc.cc/u/12.php'
p1629
ssI542
(dp1630
g3
Vhttp://120.52.73.84/adultvideo.science/media/videos/iphone/813.mp4
p1631
sg5
S'http://www.websc.cc/u/13.php'
p1632
ssI543
(dp1633
g3
Vhttp://120.52.73.84/adultvideo.science/media/videos/iphone/814.mp4
p1634
sg5
S'http://www.websc.cc/u/14.php'
p1635
ssI544
(dp1636
g3
Vhttp://120.52.73.84/adultvideo.science/media/videos/iphone/815.mp4
p1637
sg5
S'http://www.websc.cc/u/15.php'
p1638
ssI545
(dp1639
g3
Vhttp://120.52.73.84/adultvideo.science/media/videos/iphone/816.mp4
p1640
sg5
S'http://www.websc.cc/u/16.php'
p1641
ssI546
(dp1642
g3
Vhttp://120.52.73.84/adultvideo.science/media/videos/iphone/817.mp4
p1643
sg5
S'http://www.websc.cc/u/17.php'
p1644
ssI547
(dp1645
g3
Vhttp://120.52.73.84/adultvideo.science/media/videos/iphone/818.mp4
p1646
sg5
S'http://www.websc.cc/u/18.php'
p1647
ssI548
(dp1648
g3
Vhttp://120.52.73.84/adultvideo.science/media/videos/iphone/819.mp4
p1649
sg5
S'http://www.websc.cc/u/19.php'
p1650
ssI549
(dp1651
g3
Vhttp://120.52.73.84/adultvideo.science/media/videos/iphone/820.mp4
p1652
sg5
S'http://www.websc.cc/u/20.php'
p1653
ssI550
(dp1654
g3
Vhttp://120.52.73.84/adultvideo.science/media/videos/iphone/821.mp4
p1655
sg5
S'http://www.websc.cc/u/21.php'
p1656
ssI551
(dp1657
g3
Vhttp://120.52.73.84/adultvideo.science/media/videos/iphone/822.mp4
p1658
sg5
S'http://www.websc.cc/u/22.php'
p1659
ssI552
(dp1660
g3
Vhttp://120.52.73.84/adultvideo.science/media/videos/iphone/823.mp4
p1661
sg5
S'http://www.websc.cc/u/23.php'
p1662
ssI553
(dp1663
g3
Vhttp://120.52.73.84/adultvideo.science/media/videos/iphone/824.mp4
p1664
sg5
S'http://www.websc.cc/u/24.php'
p1665
ssI554
(dp1666
g3
Vhttp://120.52.73.84/adultvideo.science/media/videos/iphone/825.mp4
p1667
sg5
S'http://www.websc.cc/u/25.php'
p1668
ssI555
(dp1669
g3
Vhttp://120.52.73.84/adultvideo.science/media/videos/iphone/826.mp4
p1670
sg5
S'http://www.websc.cc/u/26.php'
p1671
ssI556
(dp1672
g3
Vhttp://120.52.73.84/adultvideo.science/media/videos/iphone/827.mp4
p1673
sg5
S'http://www.websc.cc/u/27.php'
p1674
ssI557
(dp1675
g3
Vhttp://120.52.73.84/adultvideo.science/media/videos/iphone/828.mp4
p1676
sg5
S'http://www.websc.cc/u/28.php'
p1677
ssI558
(dp1678
g3
Vhttp://120.52.73.84/adultvideo.science/media/videos/iphone/829.mp4
p1679
sg5
S'http://www.websc.cc/u/29.php'
p1680
ssI559
(dp1681
g3
Vhttp://120.52.73.84/adultvideo.science/media/videos/iphone/830.mp4
p1682
sg5
S'http://www.websc.cc/u/30.php'
p1683
ssI560
(dp1684
g3
Vhttp://120.52.73.84/adultvideo.science/media/videos/iphone/831.mp4
p1685
sg5
S'http://www.websc.cc/u/31.php'
p1686
ssI561
(dp1687
g3
Vhttp://120.52.73.84/adultvideo.science/media/videos/iphone/832.mp4
p1688
sg5
S'http://www.websc.cc/u/32.php'
p1689
ssI562
(dp1690
g3
Vhttp://120.52.73.84/adultvideo.science/media/videos/iphone/833.mp4
p1691
sg5
S'http://www.websc.cc/u/33.php'
p1692
ssI563
(dp1693
g3
Vhttp://120.52.73.84/adultvideo.science/media/videos/iphone/834.mp4
p1694
sg5
S'http://www.websc.cc/u/34.php'
p1695
ssI564
(dp1696
g3
Vhttp://120.52.73.84/adultvideo.science/media/videos/iphone/835.mp4
p1697
sg5
S'http://www.websc.cc/u/35.php'
p1698
ssI565
(dp1699
g3
Vhttp://120.52.73.84/adultvideo.science/media/videos/iphone/836.mp4
p1700
sg5
S'http://www.websc.cc/u/36.php'
p1701
ssI566
(dp1702
g3
Vhttp://120.52.73.84/adultvideo.science/media/videos/iphone/837.mp4
p1703
sg5
S'http://www.websc.cc/u/37.php'
p1704
ssI567
(dp1705
g3
Vhttp://120.52.73.84/adultvideo.science/media/videos/iphone/838.mp4
p1706
sg5
S'http://www.websc.cc/u/38.php'
p1707
ssI568
(dp1708
g3
Vhttp://120.52.73.84/adultvideo.science/media/videos/iphone/839.mp4
p1709
sg5
S'http://www.websc.cc/u/39.php'
p1710
ssI569
(dp1711
g3
Vhttp://120.52.73.84/adultvideo.science/media/videos/iphone/840.mp4
p1712
sg5
S'http://www.websc.cc/u/40.php'
p1713
ssI570
(dp1714
g3
Vhttp://120.52.73.84/adultvideo.science/media/videos/iphone/841.mp4
p1715
sg5
S'http://www.websc.cc/u/41.php'
p1716
ssI571
(dp1717
g3
Vhttp://120.52.73.84/adultvideo.science/media/videos/iphone/842.mp4
p1718
sg5
S'http://www.websc.cc/u/42.php'
p1719
ssI572
(dp1720
g3
Vhttp://120.52.73.84/adultvideo.science/media/videos/iphone/843.mp4
p1721
sg5
S'http://www.websc.cc/u/43.php'
p1722
ssI573
(dp1723
g3
Vhttp://120.52.73.84/adultvideo.science/media/videos/iphone/844.mp4
p1724
sg5
S'http://www.websc.cc/u/44.php'
p1725
ssI574
(dp1726
g3
Vhttp://120.52.73.84/adultvideo.science/media/videos/iphone/845.mp4
p1727
sg5
S'http://www.websc.cc/u/45.php'
p1728
ssI575
(dp1729
g3
Vhttp://120.52.73.84/adultvideo.science/media/videos/iphone/846.mp4
p1730
sg5
S'http://www.websc.cc/u/46.php'
p1731
ssI576
(dp1732
g3
Vhttp://120.52.73.84/adultvideo.science/media/videos/iphone/847.mp4
p1733
sg5
S'http://www.websc.cc/u/47.php'
p1734
ssI577
(dp1735
g3
Vhttp://120.52.73.84/adultvideo.science/media/videos/iphone/848.mp4
p1736
sg5
S'http://www.websc.cc/u/48.php'
p1737
ssI578
(dp1738
g3
Vhttp://120.52.73.84/adultvideo.science/media/videos/iphone/849.mp4
p1739
sg5
S'http://www.websc.cc/u/49.php'
p1740
ssI579
(dp1741
g3
Vhttp://120.52.73.84/adultvideo.science/media/videos/iphone/850.mp4
p1742
sg5
S'http://www.websc.cc/u/50.php'
p1743
ssI580
(dp1744
g3
Vhttp://120.52.73.84/adultvideo.science/media/videos/iphone/851.mp4
p1745
sg5
S'http://www.websc.cc/u/51.php'
p1746
ssI581
(dp1747
g3
Vhttp://120.52.73.84/adultvideo.science/media/videos/iphone/852.mp4
p1748
sg5
S'http://www.websc.cc/u/52.php'
p1749
ssI582
(dp1750
g3
Vhttp://120.52.73.84/adultvideo.science/media/videos/iphone/853.mp4
p1751
sg5
S'http://www.websc.cc/u/53.php'
p1752
ssI583
(dp1753
g3
Vhttp://120.52.73.84/adultvideo.science/media/videos/iphone/854.mp4
p1754
sg5
S'http://www.websc.cc/u/54.php'
p1755
ssI584
(dp1756
g3
Vhttp://120.52.73.84/adultvideo.science/media/videos/iphone/855.mp4
p1757
sg5
S'http://www.websc.cc/u/55.php'
p1758
ssI585
(dp1759
g3
Vhttp://120.52.73.84/adultvideo.science/media/videos/iphone/856.mp4
p1760
sg5
S'http://www.websc.cc/u/56.php'
p1761
ssI586
(dp1762
g3
Vhttp://120.52.73.84/adultvideo.science/media/videos/iphone/857.mp4
p1763
sg5
S'http://www.websc.cc/u/57.php'
p1764
ssI587
(dp1765
g3
Vhttp://120.52.73.84/adultvideo.science/media/videos/iphone/858.mp4
p1766
sg5
S'http://www.websc.cc/u/58.php'
p1767
ssI588
(dp1768
g3
Vhttp://120.52.73.84/adultvideo.science/media/videos/iphone/859.mp4
p1769
sg5
S'http://www.websc.cc/u/59.php'
p1770
ssI589
(dp1771
g3
Vhttp://120.52.73.84/adultvideo.science/media/videos/iphone/860.mp4
p1772
sg5
S'http://www.websc.cc/u/60.php'
p1773
ssI590
(dp1774
g3
Vhttp://120.52.73.84/adultvideo.science/media/videos/iphone/861.mp4
p1775
sg5
S'http://www.websc.cc/u/61.php'
p1776
ssI591
(dp1777
g3
Vhttp://120.52.73.84/adultvideo.science/media/videos/iphone/862.mp4
p1778
sg5
S'http://www.websc.cc/u/62.php'
p1779
ssI592
(dp1780
g3
Vhttp://120.52.73.84/adultvideo.science/media/videos/iphone/863.mp4
p1781
sg5
S'http://www.websc.cc/u/63.php'
p1782
ssI593
(dp1783
g3
Vhttp://120.52.73.84/adultvideo.science/media/videos/iphone/864.mp4
p1784
sg5
S'http://www.websc.cc/u/64.php'
p1785
ssI594
(dp1786
g3
Vhttp://120.52.73.84/adultvideo.science/media/videos/iphone/865.mp4
p1787
sg5
S'http://www.websc.cc/u/65.php'
p1788
ssI595
(dp1789
g3
Vhttp://120.52.73.84/adultvideo.science/media/videos/iphone/866.mp4
p1790
sg5
S'http://www.websc.cc/u/66.php'
p1791
ssI596
(dp1792
g3
Vhttp://120.52.73.84/adultvideo.science/media/videos/iphone/867.mp4
p1793
sg5
S'http://www.websc.cc/u/67.php'
p1794
ssI597
(dp1795
g3
Vhttp://120.52.73.84/adultvideo.science/media/videos/iphone/868.mp4
p1796
sg5
S'http://www.websc.cc/u/68.php'
p1797
ssI598
(dp1798
g3
Vhttp://120.52.73.84/adultvideo.science/media/videos/iphone/869.mp4
p1799
sg5
S'http://www.websc.cc/u/69.php'
p1800
ssI599
(dp1801
g3
Vhttp://120.52.73.84/adultvideo.science/media/videos/iphone/870.mp4
p1802
sg5
S'http://www.websc.cc/u/70.php'
p1803
ssI600
(dp1804
g3
Vhttp://120.52.73.84/adultvideo.science/media/videos/iphone/871.mp4
p1805
sg5
S'http://www.websc.cc/u/71.php'
p1806
ssI601
(dp1807
g3
Vhttp://120.52.73.84/adultvideo.science/media/videos/iphone/872.mp4
p1808
sg5
S'http://www.websc.cc/u/72.php'
p1809
ssI602
(dp1810
g3
Vhttp://120.52.73.84/adultvideo.science/media/videos/iphone/873.mp4
p1811
sg5
S'http://www.websc.cc/u/73.php'
p1812
ssI603
(dp1813
g3
Vhttp://120.52.73.84/adultvideo.science/media/videos/iphone/874.mp4
p1814
sg5
S'http://www.websc.cc/u/74.php'
p1815
ssI604
(dp1816
g3
Vhttp://120.52.73.84/adultvideo.science/media/videos/iphone/875.mp4
p1817
sg5
S'http://www.websc.cc/u/75.php'
p1818
ssI605
(dp1819
g3
Vhttp://120.52.73.84/adultvideo.science/media/videos/iphone/876.mp4
p1820
sg5
S'http://www.websc.cc/u/76.php'
p1821
ssI606
(dp1822
g3
Vhttp://120.52.73.84/adultvideo.science/media/videos/iphone/877.mp4
p1823
sg5
S'http://www.websc.cc/u/77.php'
p1824
ssI607
(dp1825
g3
Vhttp://120.52.73.84/adultvideo.science/media/videos/iphone/878.mp4
p1826
sg5
S'http://www.websc.cc/u/78.php'
p1827
ssI608
(dp1828
g3
Vhttp://120.52.73.84/adultvideo.science/media/videos/iphone/879.mp4
p1829
sg5
S'http://www.websc.cc/u/79.php'
p1830
ssI609
(dp1831
g3
Vhttp://120.52.73.84/adultvideo.science/media/videos/iphone/880.mp4
p1832
sg5
S'http://www.websc.cc/u/80.php'
p1833
ssI610
(dp1834
g3
Vhttp://120.52.73.84/adultvideo.science/media/videos/iphone/881.mp4
p1835
sg5
S'http://www.websc.cc/u/81.php'
p1836
ssI611
(dp1837
g3
Vhttp://120.52.73.84/adultvideo.science/media/videos/iphone/882.mp4
p1838
sg5
S'http://www.websc.cc/u/82.php'
p1839
ssI612
(dp1840
g3
Vhttp://120.52.73.84/adultvideo.science/media/videos/iphone/883.mp4
p1841
sg5
S'http://www.websc.cc/u/83.php'
p1842
ssI613
(dp1843
g3
Vhttp://120.52.73.84/adultvideo.science/media/videos/iphone/884.mp4
p1844
sg5
S'http://www.websc.cc/u/84.php'
p1845
ssI614
(dp1846
g3
Vhttp://120.52.73.84/adultvideo.science/media/videos/iphone/885.mp4
p1847
sg5
S'http://www.websc.cc/u/85.php'
p1848
ssI615
(dp1849
g3
Vhttp://120.52.73.84/adultvideo.science/media/videos/iphone/886.mp4
p1850
sg5
S'http://www.websc.cc/u/86.php'
p1851
ssI616
(dp1852
g3
Vhttp://120.52.73.84/adultvideo.science/media/videos/iphone/887.mp4
p1853
sg5
S'http://www.websc.cc/u/87.php'
p1854
ssI617
(dp1855
g3
Vhttp://120.52.73.84/adultvideo.science/media/videos/iphone/888.mp4
p1856
sg5
S'http://www.websc.cc/u/88.php'
p1857
ssI618
(dp1858
g3
Vhttp://120.52.73.84/adultvideo.science/media/videos/iphone/889.mp4
p1859
sg5
S'http://www.websc.cc/u/89.php'
p1860
ssI619
(dp1861
g3
Vhttp://120.52.73.84/adultvideo.science/media/videos/iphone/890.mp4
p1862
sg5
S'http://www.websc.cc/u/90.php'
p1863
ssI620
(dp1864
g3
Vhttp://120.52.73.84/adultvideo.science/media/videos/iphone/891.mp4
p1865
sg5
S'http://www.websc.cc/u/91.php'
p1866
ssI621
(dp1867
g3
Vhttp://120.52.73.84/adultvideo.science/media/videos/iphone/892.mp4
p1868
sg5
S'http://www.websc.cc/u/92.php'
p1869
ssI622
(dp1870
g3
Vhttp://120.52.73.84/adultvideo.science/media/videos/iphone/893.mp4
p1871
sg5
S'http://www.websc.cc/u/93.php'
p1872
ssI623
(dp1873
g3
Vhttp://120.52.73.84/adultvideo.science/media/videos/iphone/894.mp4
p1874
sg5
S'http://www.websc.cc/u/94.php'
p1875
ssI624
(dp1876
g3
Vhttp://120.52.73.84/adultvideo.science/media/videos/iphone/895.mp4
p1877
sg5
S'http://www.websc.cc/u/95.php'
p1878
ssI625
(dp1879
g3
Vhttp://120.52.73.84/adultvideo.science/media/videos/iphone/896.mp4
p1880
sg5
S'http://www.websc.cc/u/96.php'
p1881
ssI626
(dp1882
g3
Vhttp://120.52.73.84/adultvideo.science/media/videos/iphone/897.mp4
p1883
sg5
S'http://www.websc.cc/u/97.php'
p1884
ssI627
(dp1885
g3
Vhttp://120.52.73.84/adultvideo.science/media/videos/iphone/898.mp4
p1886
sg5
S'http://www.websc.cc/u/98.php'
p1887
ssI628
(dp1888
g3
Vhttp://120.52.73.84/adultvideo.science/media/videos/iphone/899.mp4
p1889
sg5
S'http://www.websc.cc/u/99.php'
p1890
ss.